Turbo Assembler	 Version 2.0	    05/29/96 02:11:59	    Page 1
dasm_c11.ASM



      1					 masm
      2					 p486
      3	    0000			 code segment use16
      4					 assume	 cs:code,ds:code,es:code,ss:code,fs:code,gs:code
      5						 org	 82h
      6	    0082  0D*(??)		 fname	 db	 13 dup	(?)
      7						 org	 100h
      8
      9	    0100  EB 45	90		 begin:	 jmp	 main
     10	    0103  6F 75	74 5F 68 63 31+	 fname1	 db	 'out_hc11.asm',0
     11		  31 2E	61 73 6D 00
     12	    0110  ????			 handle	 dw	 ?
     13	    0112  ????			 handle1 dw	 ?
     14	    0114  00			 addr1	 db	 0
     15	    0115  00			 addr2	 db	 0
     16	    0116  00			 addr3	 db	 0
     17	    0117  ??			 dta	 db	 ?
     18	    0118  ??			 dta1	 db	 ?
     19	    0119  0000			 len_hi	 dw	 0
     20	    011B  0000			 len_lo	 dw	 0
     21	    011D  00			 hi_adr	 db	 0
     22	    011E  ????			 chart	 dw	 ?
     23	    0120  0000			 val16	 dw	 0
     24	    0122  00			 val8	 db	 0
     25	    0123  0000			 adr16	 dw	 0
     26	    0125  00			 shift1	 db	 0
     27	    0126  00			 shift2	 db	 0
     28	    0127  65 72	72 6F 72 20 66+	 mess3	 db	 'error	file$'
     29		  69 6C	65 24
     30	    0132  41 6C	6C 20 6F 6B 24+	 mess1	 db	 'All ok$    '
     31		  20 20	20 20
     32	    013D  74 65	73 74 2E 66 69+	 ftest	 db	 'test.fil',0
     33		  6C 00
     34	    0146  ??			 orec	 db	 ?
     35
     36	    0147  B9 000D		 main:	 mov	 cx,13
     37	    014A  BE 0082r			 lea	 si,fname
     38	    014D  BB 0000			 mov	 bx,0
     39	    0150  BE 0082r			 lea	 si,fname
     40	    0153  8A 00			 l1:	 mov	 al,[si+bx]
     41	    0155  3C 20				 cmp	 al,20h
     42	    0157  74 0B	90 90			 jz	 change
     43	    015B  3C 0D				 cmp	 al,0dh
     44	    015D  74 05	90 90			 jz	 change
     45	    0161  43				 inc	 bx
     46	    0162  E2 EF				 loop	 L1
     47	    0164  B0 00			 change: mov	 al,0
     48	    0166  88 00				 mov	 [si+bx],al
     49	    0168  B4 3D			 openfi: mov	 ah,3dh
     50	    016A  B0 00				 mov	 al,0
     51	    016C  BA 0082r			 lea	 dx,fname
     52	    016F  CD 21				 int	 21h
     53	    0171  72 08	90 90			 jc	 err_F		 ;file error
     54	    0175  A3 0110r			 mov	 handle,ax
     55	    0178  EB 1D	90			 jmp	 n_op_f
     56	    017B  E8 1B26		 err_f:	 call	 close
     57	    017E  B4 09			 m_er_f: mov	 ah,09
Turbo Assembler	 Version 2.0	    05/29/96 02:11:59	    Page 2
dasm_c11.ASM



     58	    0180  BA 0127r			 lea	 dx,mess3
     59	    0183  B9 0020			 mov	 cx,32
     60	    0186  CD 21				 int	 21h
     61	    0188  C3				 ret
     62	    0189  E8 1B18		 end_f:	 call	 close
     63	    018C  B4 09				 mov	 ah,09
     64	    018E  BA 0132r			 lea	 dx,mess1
     65	    0191  B9 0020			 mov	 cx,32
     66	    0194  CD 21				 int	 21h
     67	    0196  C3				 ret
     68	    0197  E8 1B40		 n_op_f: call	 crefi
     69	    019A  E8 1B25		 cont_1: call	 read		 ;	 \
     70					 ;	 cmp	 ah,1
     71					 ;	 jz	 end_f
     72	    019D  A1 0123r			 mov	 ax,adr16
     73	    01A0  A3 0120r			 mov	 val16,ax
     74	    01A3  E8 1C16			 call	 prn16
     75	    01A6  C6 06	0146r 20	 cont_2: mov	 orec,20h
     76	    01AB  E8 1B3A			 call	 rec
     77	    01AE  C6 06	0146r 20		 mov	 orec,20h
     78	    01B3  E8 1B32			 call	 rec
     79	    01B6  A0 0117r			 mov	 al,dta
     80	    01B9  A2 0122r			 mov	 val8,al
     81	    01BC  E8 1C1F			 call	 prn8
     82	    01BF  C6 06	0146r 09		 mov	 orec,09h
     83	    01C4  E8 1B21			 call	 rec
     84
     85	    01C7  80 3E	0117r 00	 a0:	 cmp	 dta,00h
     86	    01CC  75 02				 jnz	 $+4
     87	    01CE  E9 09EC			 jmp	 m00
     88	    01D1  80 3E	0117r 01		 cmp	 dta,01h
     89	    01D6  75 02				 jnz	 $+4
     90	    01D8  E9 09EE			 jmp	 m01
     91	    01DB  80 3E	0117r 02		 cmp	 dta,02h
     92	    01E0  75 02				 jnz	 $+4
     93	    01E2  E9 09F0			 jmp	 m02
     94	    01E5  80 3E	0117r 03		 cmp	 dta,03h
     95	    01EA  75 02				 jnz	 $+4
     96	    01EC  E9 09F2			 jmp	 m03
     97	    01EF  80 3E	0117r 04		 cmp	 dta,04h
     98	    01F4  75 02				 jnz	 $+4
     99	    01F6  E9 09F4			 jmp	 m04
    100	    01F9  80 3E	0117r 05		 cmp	 dta,05h
    101	    01FE  75 02				 jnz	 $+4
    102	    0200  E9 09F6			 jmp	 m05
    103	    0203  80 3E	0117r 06		 cmp	 dta,06h
    104	    0208  75 02				 jnz	 $+4
    105	    020A  E9 09F8			 jmp	 m06
    106	    020D  80 3E	0117r 07		 cmp	 dta,07h
    107	    0212  75 02				 jnz	 $+4
    108	    0214  E9 09FA			 jmp	 m07
    109	    0217  80 3E	0117r 08		 cmp	 dta,08h
    110	    021C  75 02				 jnz	 $+4
    111	    021E  E9 09FC			 jmp	 m08
    112	    0221  80 3E	0117r 09		 cmp	 dta,09h
    113	    0226  75 02				 jnz	 $+4
    114	    0228  E9 0A13			 jmp	 m09
Turbo Assembler	 Version 2.0	    05/29/96 02:11:59	    Page 3
dasm_c11.ASM



    115	    022B  80 3E	0117r 0A		 cmp	 dta,0ah
    116	    0230  75 02				 jnz	 $+4
    117	    0232  E9 0A15			 jmp	 m0a
    118	    0235  80 3E	0117r 0B		 cmp	 dta,0bh
    119	    023A  75 02				 jnz	 $+4
    120	    023C  E9 0A17			 jmp	 m0b
    121	    023F  80 3E	0117r 0C		 cmp	 dta,0ch
    122	    0244  75 02				 jnz	 $+4
    123	    0246  E9 0A19			 jmp	 m0c
    124	    0249  80 3E	0117r 0D		 cmp	 dta,0dh
    125	    024E  75 02				 jnz	 $+4
    126	    0250  E9 0A1B			 jmp	 m0d
    127	    0253  80 3E	0117r 0E		 cmp	 dta,0eh
    128	    0258  75 02				 jnz	 $+4
    129	    025A  E9 0A1D			 jmp	 m0e
    130	    025D  80 3E	0117r 0F		 cmp	 dta,0fh
    131	    0262  75 02				 jnz	 $+4
    132	    0264  E9 0A1F			 jmp	 m0f
    133
    134	    0267  80 3E	0117r 10	 a1:	 cmp	 dta,10h
    135	    026C  75 02				 jnz	 $+4
    136	    026E  E9 0A21			 jmp	 m10
    137	    0271  80 3E	0117r 11		 cmp	 dta,11h
    138	    0276  75 02				 jnz	 $+4
    139	    0278  E9 0A23			 jmp	 m11
    140	    027B  80 3E	0117r 12		 cmp	 dta,12h
    141	    0280  75 02				 jnz	 $+4
    142	    0282  E9 0A25			 jmp	 m12
    143	    0285  80 3E	0117r 13		 cmp	 dta,13h
    144	    028A  75 02				 jnz	 $+4
    145	    028C  E9 0A36			 jmp	 m13
    146	    028F  80 3E	0117r 14		 cmp	 dta,14h
    147	    0294  75 02				 jnz	 $+4
    148	    0296  E9 0A47			 jmp	 m14
    149	    0299  80 3E	0117r 15		 cmp	 dta,15h
    150	    029E  75 02				 jnz	 $+4
    151	    02A0  E9 0A52			 jmp	 m15
    152	    02A3  80 3E	0117r 16		 cmp	 dta,16h
    153	    02A8  75 02				 jnz	 $+4
    154	    02AA  E9 0A5D			 jmp	 m16
    155	    02AD  80 3E	0117r 17		 cmp	 dta,17h
    156	    02B2  75 02				 jnz	 $+4
    157	    02B4  E9 0A5F			 jmp	 m17
    158	    02B7  80 3E	0117r 18		 cmp	 dta,18h
    159	    02BC  75 02				 jnz	 $+4
    160	    02BE  E9 0A61			 jmp	 m18
    161	    02C1  80 3E	0117r 19		 cmp	 dta,19h
    162	    02C6  75 02				 jnz	 $+4
    163	    02C8  E9 0A5A			 jmp	 m19
    164	    02CB  80 3E	0117r 1A		 cmp	 dta,1ah
    165	    02D0  75 02				 jnz	 $+4
    166	    02D2  E9 0A5C			 jmp	 m1a
    167	    02D5  80 3E	0117r 1B		 cmp	 dta,1bh
    168	    02DA  75 02				 jnz	 $+4
    169	    02DC  E9 0A55			 jmp	 m1b
    170	    02DF  80 3E	0117r 1C		 cmp	 dta,1ch
    171	    02E4  75 02				 jnz	 $+4
Turbo Assembler	 Version 2.0	    05/29/96 02:11:59	    Page 4
dasm_c11.ASM



    172	    02E6  E9 0A57			 jmp	 m1c
    173	    02E9  80 3E	0117r 1D		 cmp	 dta,1dh
    174	    02EE  75 02				 jnz	 $+4
    175	    02F0  E9 0A62			 jmp	 m1d
    176	    02F3  80 3E	0117r 1E		 cmp	 dta,1eh
    177	    02F8  75 02				 jnz	 $+4
    178	    02FA  E9 0A6D			 jmp	 m1e
    179	    02FD  80 3E	0117r 1F		 cmp	 dta,1fh
    180	    0302  75 02				 jnz	 $+4
    181	    0304  E9 0A7E			 jmp	 m1f
    182
    183	    0307  80 3E	0117r 20	 a2:	 cmp	 dta,020h
    184	    030C  75 02				 jnz	 $+4
    185	    030E  E9 0A8F			 jmp	 m20
    186	    0311  80 3E	0117r 21		 cmp	 dta,021h
    187	    0316  75 02				 jnz	 $+4
    188	    0318  E9 0A94			 jmp	 m21
    189	    031B  80 3E	0117r 22		 cmp	 dta,022h
    190	    0320  75 02				 jnz	 $+4
    191	    0322  E9 0A99			 jmp	 m22
    192	    0325  80 3E	0117r 23		 cmp	 dta,023h
    193	    032A  75 02				 jnz	 $+4
    194	    032C  E9 0A9E			 jmp	 m23
    195	    032F  80 3E	0117r 24		 cmp	 dta,024h
    196	    0334  75 02				 jnz	 $+4
    197	    0336  E9 0AA3			 jmp	 m24
    198	    0339  80 3E	0117r 25		 cmp	 dta,025h
    199	    033E  75 02				 jnz	 $+4
    200	    0340  E9 0AA8			 jmp	 m25
    201	    0343  80 3E	0117r 26		 cmp	 dta,026h
    202	    0348  75 02				 jnz	 $+4
    203	    034A  E9 0AAD			 jmp	 m26
    204	    034D  80 3E	0117r 27		 cmp	 dta,027h
    205	    0352  75 02				 jnz	 $+4
    206	    0354  E9 0AB2			 jmp	 m27
    207	    0357  80 3E	0117r 28		 cmp	 dta,028h
    208	    035C  75 02				 jnz	 $+4
    209	    035E  E9 0AB7			 jmp	 m28
    210	    0361  80 3E	0117r 29		 cmp	 dta,029h
    211	    0366  75 02				 jnz	 $+4
    212	    0368  E9 0ABC			 jmp	 m29
    213	    036B  80 3E	0117r 2A		 cmp	 dta,02ah
    214	    0370  75 02				 jnz	 $+4
    215	    0372  E9 0AC1			 jmp	 m2a
    216	    0375  80 3E	0117r 2B		 cmp	 dta,02bh
    217	    037A  75 02				 jnz	 $+4
    218	    037C  E9 0AC6			 jmp	 m2b
    219	    037F  80 3E	0117r 2C		 cmp	 dta,02ch
    220	    0384  75 02				 jnz	 $+4
    221	    0386  E9 0ACB			 jmp	 m2c
    222	    0389  80 3E	0117r 2D		 cmp	 dta,02dh
    223	    038E  75 02				 jnz	 $+4
    224	    0390  E9 0AD0			 jmp	 m2d
    225	    0393  80 3E	0117r 2E		 cmp	 dta,02eh
    226	    0398  75 02				 jnz	 $+4
    227	    039A  E9 0AD5			 jmp	 m2e
    228	    039D  80 3E	0117r 2F		 cmp	 dta,02fh
Turbo Assembler	 Version 2.0	    05/29/96 02:11:59	    Page 5
dasm_c11.ASM



    229	    03A2  75 02				 jnz	 $+4
    230	    03A4  E9 0ADA			 jmp	 m2f
    231
    232	    03A7  80 3E	0117r 30	 a3:	 cmp	 dta,030h
    233	    03AC  75 02				 jnz	 $+4
    234	    03AE  E9 0ADF			 jmp	 m30
    235	    03B1  80 3E	0117r 31		 cmp	 dta,031h
    236	    03B6  75 02				 jnz	 $+4
    237	    03B8  E9 0AF6			 jmp	 m31
    238	    03BB  80 3E	0117r 32		 cmp	 dta,032h
    239	    03C0  75 02				 jnz	 $+4
    240	    03C2  E9 0AF8			 jmp	 m32
    241	    03C5  80 3E	0117r 33		 cmp	 dta,033h
    242	    03CA  75 02				 jnz	 $+4
    243	    03CC  E9 0AFA			 jmp	 m33
    244	    03CF  80 3E	0117r 34		 cmp	 dta,034h
    245	    03D4  75 02				 jnz	 $+4
    246	    03D6  E9 0AFC			 jmp	 m34
    247	    03D9  80 3E	0117r 35		 cmp	 dta,035h
    248	    03DE  75 02				 jnz	 $+4
    249	    03E0  E9 0AFE			 jmp	 m35
    250	    03E3  80 3E	0117r 36		 cmp	 dta,036h
    251	    03E8  75 02				 jnz	 $+4
    252	    03EA  E9 0B15			 jmp	 m36
    253	    03ED  80 3E	0117r 37		 cmp	 dta,037h
    254	    03F2  75 02				 jnz	 $+4
    255	    03F4  E9 0B17			 jmp	 m37
    256	    03F7  80 3E	0117r 38		 cmp	 dta,038h
    257	    03FC  75 02				 jnz	 $+4
    258	    03FE  E9 0B19			 jmp	 m38
    259	    0401  80 3E	0117r 39		 cmp	 dta,039h
    260	    0406  75 02				 jnz	 $+4
    261	    0408  E9 0B30			 jmp	 m39
    262	    040B  80 3E	0117r 3A		 cmp	 dta,03ah
    263	    0410  75 02				 jnz	 $+4
    264	    0412  E9 0B32			 jmp	 m3a
    265	    0415  80 3E	0117r 3B		 cmp	 dta,03bh
    266	    041A  75 02				 jnz	 $+4
    267	    041C  E9 0B49			 jmp	 m3b
    268	    041F  80 3E	0117r 3C		 cmp	 dta,03ch
    269	    0424  75 02				 jnz	 $+4
    270	    0426  E9 0B4B			 jmp	 m3c
    271	    0429  80 3E	0117r 3D		 cmp	 dta,03dh
    272	    042E  75 02				 jnz	 $+4
    273	    0430  E9 0B62			 jmp	 m3d
    274	    0433  80 3E	0117r 3E		 cmp	 dta,03eh
    275	    0438  75 02				 jnz	 $+4
    276	    043A  E9 0B64			 jmp	 m3e
    277	    043D  80 3E	0117r 3F		 cmp	 dta,03fh
    278	    0442  75 02				 jnz	 $+4
    279	    0444  E9 0B66			 jmp	 m3f
    280
    281	    0447  80 3E	0117r 40	 a4:	 cmp	 dta,040h
    282	    044C  75 02				 jnz	 $+4
    283	    044E  E9 0B68			 jmp	 m40
    284	    0451  80 3E	0117r 41		 cmp	 dta,041h
    285	    0456  75 02				 jnz	 $+4
Turbo Assembler	 Version 2.0	    05/29/96 02:11:59	    Page 6
dasm_c11.ASM



    286	    0458  E9 0B6A			 jmp	 m41
    287	    045B  80 3E	0117r 42		 cmp	 dta,042h
    288	    0460  75 02				 jnz	 $+4
    289	    0462  E9 0B6C			 jmp	 m42
    290	    0465  80 3E	0117r 43		 cmp	 dta,043h
    291	    046A  75 02				 jnz	 $+4
    292	    046C  E9 0B6E			 jmp	 m43
    293	    046F  80 3E	0117r 44		 cmp	 dta,044h
    294	    0474  75 02				 jnz	 $+4
    295	    0476  E9 0B70			 jmp	 m44
    296	    0479  80 3E	0117r 45		 cmp	 dta,045h
    297	    047E  75 02				 jnz	 $+4
    298	    0480  E9 0B72			 jmp	 m45
    299	    0483  80 3E	0117r 46		 cmp	 dta,046h
    300	    0488  75 02				 jnz	 $+4
    301	    048A  E9 0B74			 jmp	 m46
    302	    048D  80 3E	0117r 47		 cmp	 dta,047h
    303	    0492  75 02				 jnz	 $+4
    304	    0494  E9 0B76			 jmp	 m47
    305	    0497  80 3E	0117r 48		 cmp	 dta,048h
    306	    049C  75 02				 jnz	 $+4
    307	    049E  E9 0B78			 jmp	 m48
    308	    04A1  80 3E	0117r 49		 cmp	 dta,049h
    309	    04A6  75 02				 jnz	 $+4
    310	    04A8  E9 0B7A			 jmp	 m49
    311	    04AB  80 3E	0117r 4A		 cmp	 dta,04ah
    312	    04B0  75 02				 jnz	 $+4
    313	    04B2  E9 0B7C			 jmp	 m4a
    314	    04B5  80 3E	0117r 4B		 cmp	 dta,04bh
    315	    04BA  75 02				 jnz	 $+4
    316	    04BC  E9 0B7E			 jmp	 m4b
    317	    04BF  80 3E	0117r 4C		 cmp	 dta,04ch
    318	    04C4  75 02				 jnz	 $+4
    319	    04C6  E9 0B80			 jmp	 m4c
    320	    04C9  80 3E	0117r 4D		 cmp	 dta,04dh
    321	    04CE  75 02				 jnz	 $+4
    322	    04D0  E9 0B82			 jmp	 m4d
    323	    04D3  80 3E	0117r 4E		 cmp	 dta,04eh
    324	    04D8  75 02				 jnz	 $+4
    325	    04DA  E9 0B84			 jmp	 m4e
    326	    04DD  80 3E	0117r 4F		 cmp	 dta,04fh
    327	    04E2  75 02				 jnz	 $+4
    328	    04E4  E9 0B86			 jmp	 m4f
    329
    330	    04E7  80 3E	0117r 50	 a5:	 cmp	 dta,050h
    331	    04EC  75 02				 jnz	 $+4
    332	    04EE  E9 0B88			 jmp	 m50
    333	    04F1  80 3E	0117r 51		 cmp	 dta,051h
    334	    04F6  75 02				 jnz	 $+4
    335	    04F8  E9 0B8A			 jmp	 m51
    336	    04FB  80 3E	0117r 52		 cmp	 dta,052h
    337	    0500  75 02				 jnz	 $+4
    338	    0502  E9 0B8C			 jmp	 m52
    339	    0505  80 3E	0117r 53		 cmp	 dta,053h
    340	    050A  75 02				 jnz	 $+4
    341	    050C  E9 0B8E			 jmp	 m53
    342	    050F  80 3E	0117r 54		 cmp	 dta,054h
Turbo Assembler	 Version 2.0	    05/29/96 02:11:59	    Page 7
dasm_c11.ASM



    343	    0514  75 02				 jnz	 $+4
    344	    0516  E9 0B90			 jmp	 m54
    345	    0519  80 3E	0117r 55		 cmp	 dta,055h
    346	    051E  75 02				 jnz	 $+4
    347	    0520  E9 0B92			 jmp	 m55
    348	    0523  80 3E	0117r 56		 cmp	 dta,056h
    349	    0528  75 02				 jnz	 $+4
    350	    052A  E9 0B94			 jmp	 m56
    351	    052D  80 3E	0117r 57		 cmp	 dta,057h
    352	    0532  75 02				 jnz	 $+4
    353	    0534  E9 0B96			 jmp	 m57
    354	    0537  80 3E	0117r 58		 cmp	 dta,058h
    355	    053C  75 02				 jnz	 $+4
    356	    053E  E9 0B98			 jmp	 m58
    357	    0541  80 3E	0117r 59		 cmp	 dta,059h
    358	    0546  75 02				 jnz	 $+4
    359	    0548  E9 0B9A			 jmp	 m59
    360	    054B  80 3E	0117r 5A		 cmp	 dta,05ah
    361	    0550  75 02				 jnz	 $+4
    362	    0552  E9 0B9C			 jmp	 m5a
    363	    0555  80 3E	0117r 5B		 cmp	 dta,05bh
    364	    055A  75 02				 jnz	 $+4
    365	    055C  E9 0B9E			 jmp	 m5b
    366	    055F  80 3E	0117r 5C		 cmp	 dta,05ch
    367	    0564  75 02				 jnz	 $+4
    368	    0566  E9 0BA0			 jmp	 m5c
    369	    0569  80 3E	0117r 5D		 cmp	 dta,05dh
    370	    056E  75 02				 jnz	 $+4
    371	    0570  E9 0BA2			 jmp	 m5d
    372	    0573  80 3E	0117r 5E		 cmp	 dta,05eh
    373	    0578  75 02				 jnz	 $+4
    374	    057A  E9 0BA4			 jmp	 m5e
    375	    057D  80 3E	0117r 5F		 cmp	 dta,05fh
    376	    0582  75 02				 jnz	 $+4
    377	    0584  E9 0BA6			 jmp	 m5f
    378
    379	    0587  80 3E	0117r 60	 a6:	 cmp	 dta,060h
    380	    058C  75 02				 jnz	 $+4
    381	    058E  E9 0BA8			 jmp	 m60
    382	    0591  80 3E	0117r 61		 cmp	 dta,061h
    383	    0596  75 02				 jnz	 $+4
    384	    0598  E9 0BB0			 jmp	 m61
    385	    059B  80 3E	0117r 62		 cmp	 dta,062h
    386	    05A0  75 02				 jnz	 $+4
    387	    05A2  E9 0BB2			 jmp	 m62
    388	    05A5  80 3E	0117r 63		 cmp	 dta,063h
    389	    05AA  75 02				 jnz	 $+4
    390	    05AC  E9 0BB4			 jmp	 m63
    391	    05AF  80 3E	0117r 64		 cmp	 dta,064h
    392	    05B4  75 02				 jnz	 $+4
    393	    05B6  E9 0BBC			 jmp	 m64
    394	    05B9  80 3E	0117r 65		 cmp	 dta,065h
    395	    05BE  75 02				 jnz	 $+4
    396	    05C0  E9 0BC4			 jmp	 m65
    397	    05C3  80 3E	0117r 66		 cmp	 dta,066h
    398	    05C8  75 02				 jnz	 $+4
    399	    05CA  E9 0BC6			 jmp	 m66
Turbo Assembler	 Version 2.0	    05/29/96 02:11:59	    Page 8
dasm_c11.ASM



    400	    05CD  80 3E	0117r 67		 cmp	 dta,067h
    401	    05D2  75 02				 jnz	 $+4
    402	    05D4  E9 0BCE			 jmp	 m67
    403	    05D7  80 3E	0117r 68		 cmp	 dta,068h
    404	    05DC  75 02				 jnz	 $+4
    405	    05DE  E9 0BD6			 jmp	 m68
    406	    05E1  80 3E	0117r 69		 cmp	 dta,069h
    407	    05E6  75 02				 jnz	 $+4
    408	    05E8  E9 0BDE			 jmp	 m69
    409	    05EB  80 3E	0117r 6A		 cmp	 dta,06ah
    410	    05F0  75 02				 jnz	 $+4
    411	    05F2  E9 0BE6			 jmp	 m6a
    412	    05F5  80 3E	0117r 6B		 cmp	 dta,06bh
    413	    05FA  75 02				 jnz	 $+4
    414	    05FC  E9 0BEE			 jmp	 m6b
    415	    05FF  80 3E	0117r 6C		 cmp	 dta,06ch
    416	    0604  75 02				 jnz	 $+4
    417	    0606  E9 0BF0			 jmp	 m6c
    418	    0609  80 3E	0117r 6D		 cmp	 dta,06dh
    419	    060E  75 02				 jnz	 $+4
    420	    0610  E9 0BF8			 jmp	 m6d
    421	    0613  80 3E	0117r 6E		 cmp	 dta,06eh
    422	    0618  75 02				 jnz	 $+4
    423	    061A  E9 0C00			 jmp	 m6e
    424	    061D  80 3E	0117r 6F		 cmp	 dta,06fh
    425	    0622  75 02				 jnz	 $+4
    426	    0624  E9 0C08			 jmp	 m6f
    427
    428	    0627  80 3E	0117r 70	 a7:	 cmp	 dta,070h
    429	    062C  75 02				 jnz	 $+4
    430	    062E  E9 0C10			 jmp	 m70
    431	    0631  80 3E	0117r 71		 cmp	 dta,071h
    432	    0636  75 02				 jnz	 $+4
    433	    0638  E9 0C15			 jmp	 m71
    434	    063B  80 3E	0117r 72		 cmp	 dta,072h
    435	    0640  75 02				 jnz	 $+4
    436	    0642  E9 0C17			 jmp	 m72
    437	    0645  80 3E	0117r 73		 cmp	 dta,073h
    438	    064A  75 02				 jnz	 $+4
    439	    064C  E9 0C19			 jmp	 m73
    440	    064F  80 3E	0117r 74		 cmp	 dta,074h
    441	    0654  75 02				 jnz	 $+4
    442	    0656  E9 0C1E			 jmp	 m74
    443	    0659  80 3E	0117r 75		 cmp	 dta,075h
    444	    065E  75 02				 jnz	 $+4
    445	    0660  E9 0C23			 jmp	 m75
    446	    0663  80 3E	0117r 76		 cmp	 dta,076h
    447	    0668  75 02				 jnz	 $+4
    448	    066A  E9 0C25			 jmp	 m76
    449	    066D  80 3E	0117r 77		 cmp	 dta,077h
    450	    0672  75 02				 jnz	 $+4
    451	    0674  E9 0C2A			 jmp	 m77
    452	    0677  80 3E	0117r 78		 cmp	 dta,078h
    453	    067C  75 02				 jnz	 $+4
    454	    067E  E9 0C2F			 jmp	 m78
    455	    0681  80 3E	0117r 79		 cmp	 dta,079h
    456	    0686  75 02				 jnz	 $+4
Turbo Assembler	 Version 2.0	    05/29/96 02:11:59	    Page 9
dasm_c11.ASM



    457	    0688  E9 0C34			 jmp	 m79
    458	    068B  80 3E	0117r 7A		 cmp	 dta,07ah
    459	    0690  75 02				 jnz	 $+4
    460	    0692  E9 0C39			 jmp	 m7a
    461	    0695  80 3E	0117r 7B		 cmp	 dta,07bh
    462	    069A  75 02				 jnz	 $+4
    463	    069C  E9 0C3E			 jmp	 m7b
    464	    069F  80 3E	0117r 7C		 cmp	 dta,07ch
    465	    06A4  75 02				 jnz	 $+4
    466	    06A6  E9 0C40			 jmp	 m7c
    467	    06A9  80 3E	0117r 7D		 cmp	 dta,07dh
    468	    06AE  75 02				 jnz	 $+4
    469	    06B0  E9 0C45			 jmp	 m7d
    470	    06B3  80 3E	0117r 7E		 cmp	 dta,07eh
    471	    06B8  75 02				 jnz	 $+4
    472	    06BA  E9 0C4A			 jmp	 m7e
    473	    06BD  80 3E	0117r 7F		 cmp	 dta,07fh
    474	    06C2  75 02				 jnz	 $+4
    475	    06C4  E9 0C4F			 jmp	 m7f
    476
    477	    06C7  80 3E	0117r 80	 a8:	 cmp	 dta,080h
    478	    06CC  75 02				 jnz	 $+4
    479	    06CE  E9 0C54			 jmp	 m80
    480	    06D1  80 3E	0117r 81		 cmp	 dta,081h
    481	    06D6  75 02				 jnz	 $+4
    482	    06D8  E9 0C59			 jmp	 m81
    483	    06DB  80 3E	0117r 82		 cmp	 dta,082h
    484	    06E0  75 02				 jnz	 $+4
    485	    06E2  E9 0C5E			 jmp	 m82
    486	    06E5  80 3E	0117r 83		 cmp	 dta,083h
    487	    06EA  75 02				 jnz	 $+4
    488	    06EC  E9 0C63			 jmp	 m83
    489	    06EF  80 3E	0117r 84		 cmp	 dta,084h
    490	    06F4  75 02				 jnz	 $+4
    491	    06F6  E9 0C68			 jmp	 m84
    492	    06F9  80 3E	0117r 85		 cmp	 dta,085h
    493	    06FE  75 02				 jnz	 $+4
    494	    0700  E9 0C6D			 jmp	 m85
    495	    0703  80 3E	0117r 86		 cmp	 dta,086h
    496	    0708  75 02				 jnz	 $+4
    497	    070A  E9 0C72			 jmp	 m86
    498	    070D  80 3E	0117r 87		 cmp	 dta,087h
    499	    0712  75 02				 jnz	 $+4
    500	    0714  E9 0C77			 jmp	 m87
    501	    0717  80 3E	0117r 88		 cmp	 dta,088h
    502	    071C  75 02				 jnz	 $+4
    503	    071E  E9 0C79			 jmp	 m88
    504	    0721  80 3E	0117r 89		 cmp	 dta,089h
    505	    0726  75 02				 jnz	 $+4
    506	    0728  E9 0C7E			 jmp	 m89
    507	    072B  80 3E	0117r 8A		 cmp	 dta,08ah
    508	    0730  75 02				 jnz	 $+4
    509	    0732  E9 0C83			 jmp	 m8a
    510	    0735  80 3E	0117r 8B		 cmp	 dta,08bh
    511	    073A  75 02				 jnz	 $+4
    512	    073C  E9 0C88			 jmp	 m8b
    513	    073F  80 3E	0117r 8C		 cmp	 dta,08ch
Turbo Assembler	 Version 2.0	    05/29/96 02:11:59	    Page 10
dasm_c11.ASM



    514	    0744  75 02				 jnz	 $+4
    515	    0746  E9 0C8D			 jmp	 m8c
    516	    0749  80 3E	0117r 8D		 cmp	 dta,08dh
    517	    074E  75 02				 jnz	 $+4
    518	    0750  E9 0CAA			 jmp	 m8d
    519	    0753  80 3E	0117r 8E		 cmp	 dta,08eh
    520	    0758  75 02				 jnz	 $+4
    521	    075A  E9 0CAF			 jmp	 m8e
    522	    075D  80 3E	0117r 8F		 cmp	 dta,08fh
    523	    0762  75 02				 jnz	 $+4
    524	    0764  E9 0CB4			 jmp	 m8f
    525
    526	    0767  80 3E	0117r 90	 a9:	 cmp	 dta,090h
    527	    076C  75 02				 jnz	 $+4
    528	    076E  E9 0CCB			 jmp	 m90
    529	    0771  80 3E	0117r 91		 cmp	 dta,091h
    530	    0776  75 02				 jnz	 $+4
    531	    0778  E9 0CD0			 jmp	 m91
    532	    077B  80 3E	0117r 92		 cmp	 dta,092h
    533	    0780  75 02				 jnz	 $+4
    534	    0782  E9 0CD5			 jmp	 m92
    535	    0785  80 3E	0117r 93		 cmp	 dta,093h
    536	    078A  75 02				 jnz	 $+4
    537	    078C  E9 0CDA			 jmp	 m93
    538	    078F  80 3E	0117r 94		 cmp	 dta,094h
    539	    0794  75 02				 jnz	 $+4
    540	    0796  E9 0CDF			 jmp	 m94
    541	    0799  80 3E	0117r 95		 cmp	 dta,095h
    542	    079E  75 02				 jnz	 $+4
    543	    07A0  E9 0CE4			 jmp	 m95
    544	    07A3  80 3E	0117r 96		 cmp	 dta,096h
    545	    07A8  75 02				 jnz	 $+4
    546	    07AA  E9 0CE9			 jmp	 m96
    547	    07AD  80 3E	0117r 97		 cmp	 dta,097h
    548	    07B2  75 02				 jnz	 $+4
    549	    07B4  E9 0CEE			 jmp	 m97
    550	    07B7  80 3E	0117r 98		 cmp	 dta,098h
    551	    07BC  75 02				 jnz	 $+4
    552	    07BE  E9 0CF3			 jmp	 m98
    553	    07C1  80 3E	0117r 99		 cmp	 dta,099h
    554	    07C6  75 02				 jnz	 $+4
    555	    07C8  E9 0CF8			 jmp	 m99
    556	    07CB  80 3E	0117r 9A		 cmp	 dta,09ah
    557	    07D0  75 02				 jnz	 $+4
    558	    07D2  E9 0CFD			 jmp	 m9a
    559	    07D5  80 3E	0117r 9B		 cmp	 dta,09bh
    560	    07DA  75 02				 jnz	 $+4
    561	    07DC  E9 0D02			 jmp	 m9b
    562	    07DF  80 3E	0117r 9C		 cmp	 dta,09ch
    563	    07E4  75 02				 jnz	 $+4
    564	    07E6  E9 0D07			 jmp	 m9c
    565	    07E9  80 3E	0117r 9D		 cmp	 dta,09dh
    566	    07EE  75 02				 jnz	 $+4
    567	    07F0  E9 0D24			 jmp	 m9d
    568	    07F3  80 3E	0117r 9E		 cmp	 dta,09eh
    569	    07F8  75 02				 jnz	 $+4
    570	    07FA  E9 0D29			 jmp	 m9e
Turbo Assembler	 Version 2.0	    05/29/96 02:11:59	    Page 11
dasm_c11.ASM



    571	    07FD  80 3E	0117r 9F		 cmp	 dta,09fh
    572	    0802  75 02				 jnz	 $+4
    573	    0804  E9 0D2E			 jmp	 m9f
    574
    575	    0807  80 3E	0117r A0	 aa:	 cmp	 dta,0A0h
    576	    080C  75 02				 jnz	 $+4
    577	    080E  E9 0D33			 jmp	 mA0
    578	    0811  80 3E	0117r A1		 cmp	 dta,0A1h
    579	    0816  75 02				 jnz	 $+4
    580	    0818  E9 0D3B			 jmp	 mA1
    581	    081B  80 3E	0117r A2		 cmp	 dta,0A2h
    582	    0820  75 02				 jnz	 $+4
    583	    0822  E9 0D43			 jmp	 mA2
    584	    0825  80 3E	0117r A3		 cmp	 dta,0A3h
    585	    082A  75 02				 jnz	 $+4
    586	    082C  E9 0D4B			 jmp	 mA3
    587	    082F  80 3E	0117r A4		 cmp	 dta,0A4h
    588	    0834  75 02				 jnz	 $+4
    589	    0836  E9 0D53			 jmp	 mA4
    590	    0839  80 3E	0117r A5		 cmp	 dta,0A5h
    591	    083E  75 02				 jnz	 $+4
    592	    0840  E9 0D5B			 jmp	 mA5
    593	    0843  80 3E	0117r A6		 cmp	 dta,0A6h
    594	    0848  75 02				 jnz	 $+4
    595	    084A  E9 0D63			 jmp	 mA6
    596	    084D  80 3E	0117r A7		 cmp	 dta,0A7h
    597	    0852  75 02				 jnz	 $+4
    598	    0854  E9 0D6B			 jmp	 mA7
    599	    0857  80 3E	0117r A8		 cmp	 dta,0A8h
    600	    085C  75 02				 jnz	 $+4
    601	    085E  E9 0D73			 jmp	 mA8
    602	    0861  80 3E	0117r A9		 cmp	 dta,0A9h
    603	    0866  75 02				 jnz	 $+4
    604	    0868  E9 0D7B			 jmp	 mA9
    605	    086B  80 3E	0117r AA		 cmp	 dta,0Aah
    606	    0870  75 02				 jnz	 $+4
    607	    0872  E9 0D83			 jmp	 mAa
    608	    0875  80 3E	0117r AB		 cmp	 dta,0Abh
    609	    087A  75 02				 jnz	 $+4
    610	    087C  E9 0D8B			 jmp	 mab
    611	    087F  80 3E	0117r AC		 cmp	 dta,0Ach
    612	    0884  75 02				 jnz	 $+4
    613	    0886  E9 0D93			 jmp	 mac
    614	    0889  80 3E	0117r AD		 cmp	 dta,0Adh
    615	    088E  75 02				 jnz	 $+4
    616	    0890  E9 0DB6			 jmp	 mad
    617	    0893  80 3E	0117r AE		 cmp	 dta,0Aeh
    618	    0898  75 02				 jnz	 $+4
    619	    089A  E9 0DBE			 jmp	 mae
    620	    089D  80 3E	0117r AF		 cmp	 dta,0Afh
    621	    08A2  75 02				 jnz	 $+4
    622	    08A4  E9 0DC6			 jmp	 maf
    623
    624	    08A7  80 3E	0117r B0	 ab:	 cmp	 dta,0b0h
    625	    08AC  75 02				 jnz	 $+4
    626	    08AE  E9 0DCE			 jmp	 mb0
    627	    08B1  80 3E	0117r B1		 cmp	 dta,0b1h
Turbo Assembler	 Version 2.0	    05/29/96 02:11:59	    Page 12
dasm_c11.ASM



    628	    08B6  75 02				 jnz	 $+4
    629	    08B8  E9 0DD3			 jmp	 mb1
    630	    08BB  80 3E	0117r B2		 cmp	 dta,0b2h
    631	    08C0  75 02				 jnz	 $+4
    632	    08C2  E9 0DD8			 jmp	 mb2
    633	    08C5  80 3E	0117r B3		 cmp	 dta,0b3h
    634	    08CA  75 02				 jnz	 $+4
    635	    08CC  E9 0DDD			 jmp	 mb3
    636	    08CF  80 3E	0117r B4		 cmp	 dta,0b4h
    637	    08D4  75 02				 jnz	 $+4
    638	    08D6  E9 0DE2			 jmp	 mb4
    639	    08D9  80 3E	0117r B5		 cmp	 dta,0b5h
    640	    08DE  75 02				 jnz	 $+4
    641	    08E0  E9 0DE7			 jmp	 mb5
    642	    08E3  80 3E	0117r B6		 cmp	 dta,0b6h
    643	    08E8  75 02				 jnz	 $+4
    644	    08EA  E9 0DEC			 jmp	 mb6
    645	    08ED  80 3E	0117r B7		 cmp	 dta,0b7h
    646	    08F2  75 02				 jnz	 $+4
    647	    08F4  E9 0DF1			 jmp	 mb7
    648	    08F7  80 3E	0117r B8		 cmp	 dta,0b8h
    649	    08FC  75 02				 jnz	 $+4
    650	    08FE  E9 0DF6			 jmp	 mb8
    651	    0901  80 3E	0117r B9		 cmp	 dta,0b9h
    652	    0906  75 02				 jnz	 $+4
    653	    0908  E9 0DFB			 jmp	 mb9
    654	    090B  80 3E	0117r BA		 cmp	 dta,0bah
    655	    0910  75 02				 jnz	 $+4
    656	    0912  E9 0E00			 jmp	 mba
    657	    0915  80 3E	0117r BB		 cmp	 dta,0bbh
    658	    091A  75 02				 jnz	 $+4
    659	    091C  E9 0E05			 jmp	 mbb
    660	    091F  80 3E	0117r BC		 cmp	 dta,0bch
    661	    0924  75 02				 jnz	 $+4
    662	    0926  E9 0E0A			 jmp	 mbc
    663	    0929  80 3E	0117r BD		 cmp	 dta,0bdh
    664	    092E  75 02				 jnz	 $+4
    665	    0930  E9 0E27			 jmp	 mbd
    666	    0933  80 3E	0117r BE		 cmp	 dta,0beh
    667	    0938  75 02				 jnz	 $+4
    668	    093A  E9 0E2C			 jmp	 mbe
    669	    093D  80 3E	0117r BF		 cmp	 dta,0bfh
    670	    0942  75 02				 jnz	 $+4
    671	    0944  E9 0E31			 jmp	 mbf
    672
    673	    0947  80 3E	0117r C0	 ac:	 cmp	 dta,0c0h
    674	    094C  75 02				 jnz	 $+4
    675	    094E  E9 0E36			 jmp	 mc0
    676	    0951  80 3E	0117r C1		 cmp	 dta,0c1h
    677	    0956  75 02				 jnz	 $+4
    678	    0958  E9 0E3B			 jmp	 mc1
    679	    095B  80 3E	0117r C2		 cmp	 dta,0c2h
    680	    0960  75 02				 jnz	 $+4
    681	    0962  E9 0E40			 jmp	 mc2
    682	    0965  80 3E	0117r C3		 cmp	 dta,0c3h
    683	    096A  75 02				 jnz	 $+4
    684	    096C  E9 0E45			 jmp	 mc3
Turbo Assembler	 Version 2.0	    05/29/96 02:11:59	    Page 13
dasm_c11.ASM



    685	    096F  80 3E	0117r C4		 cmp	 dta,0c4h
    686	    0974  75 02				 jnz	 $+4
    687	    0976  E9 0E4A			 jmp	 mc4
    688	    0979  80 3E	0117r C5		 cmp	 dta,0c5h
    689	    097E  75 02				 jnz	 $+4
    690	    0980  E9 0E4F			 jmp	 mc5
    691	    0983  80 3E	0117r C6		 cmp	 dta,0c6h
    692	    0988  75 02				 jnz	 $+4
    693	    098A  E9 0E54			 jmp	 mc6
    694	    098D  80 3E	0117r C7		 cmp	 dta,0c7h
    695	    0992  75 02				 jnz	 $+4
    696	    0994  E9 0E59			 jmp	 mc7
    697	    0997  80 3E	0117r C8		 cmp	 dta,0c8h
    698	    099C  75 02				 jnz	 $+4
    699	    099E  E9 0E5B			 jmp	 mc8
    700	    09A1  80 3E	0117r C9		 cmp	 dta,0c9h
    701	    09A6  75 02				 jnz	 $+4
    702	    09A8  E9 0E60			 jmp	 mc9
    703	    09AB  80 3E	0117r CA		 cmp	 dta,0cah
    704	    09B0  75 02				 jnz	 $+4
    705	    09B2  E9 0E65			 jmp	 mca
    706	    09B5  80 3E	0117r CB		 cmp	 dta,0cbh
    707	    09BA  75 02				 jnz	 $+4
    708	    09BC  E9 0E6A			 jmp	 mcb
    709	    09BF  80 3E	0117r CC		 cmp	 dta,0cch
    710	    09C4  75 02				 jnz	 $+4
    711	    09C6  E9 0E6F			 jmp	 mcc
    712	    09C9  80 3E	0117r CD		 cmp	 dta,0cdh
    713	    09CE  75 02				 jnz	 $+4
    714	    09D0  E9 0E74			 jmp	 mcd
    715	    09D3  80 3E	0117r CE		 cmp	 dta,0ceh
    716	    09D8  75 02				 jnz	 $+4
    717	    09DA  E9 0E79			 jmp	 mce
    718	    09DD  80 3E	0117r CF		 cmp	 dta,0cfh
    719	    09E2  75 02				 jnz	 $+4
    720	    09E4  E9 0E96			 jmp	 mcf
    721
    722	    09E7  80 3E	0117r D0	 ad:	 cmp	 dta,0d0h
    723	    09EC  75 02				 jnz	 $+4
    724	    09EE  E9 0E98			 jmp	 md0
    725	    09F1  80 3E	0117r D1		 cmp	 dta,0d1h
    726	    09F6  75 02				 jnz	 $+4
    727	    09F8  E9 0E9D			 jmp	 md1
    728	    09FB  80 3E	0117r D2		 cmp	 dta,0d2h
    729	    0A00  75 02				 jnz	 $+4
    730	    0A02  E9 0EA2			 jmp	 md2
    731	    0A05  80 3E	0117r D3		 cmp	 dta,0d3h
    732	    0A0A  75 02				 jnz	 $+4
    733	    0A0C  E9 0EA7			 jmp	 md3
    734	    0A0F  80 3E	0117r D4		 cmp	 dta,0d4h
    735	    0A14  75 02				 jnz	 $+4
    736	    0A16  E9 0EAC			 jmp	 md4
    737	    0A19  80 3E	0117r D5		 cmp	 dta,0d5h
    738	    0A1E  75 02				 jnz	 $+4
    739	    0A20  E9 0EB1			 jmp	 md5
    740	    0A23  80 3E	0117r D6		 cmp	 dta,0d6h
    741	    0A28  75 02				 jnz	 $+4
Turbo Assembler	 Version 2.0	    05/29/96 02:11:59	    Page 14
dasm_c11.ASM



    742	    0A2A  E9 0EB6			 jmp	 md6
    743	    0A2D  80 3E	0117r D7		 cmp	 dta,0d7h
    744	    0A32  75 02				 jnz	 $+4
    745	    0A34  E9 0EBB			 jmp	 md7
    746	    0A37  80 3E	0117r D8		 cmp	 dta,0d8h
    747	    0A3C  75 02				 jnz	 $+4
    748	    0A3E  E9 0EC0			 jmp	 md8
    749	    0A41  80 3E	0117r D9		 cmp	 dta,0d9h
    750	    0A46  75 02				 jnz	 $+4
    751	    0A48  E9 0EC5			 jmp	 md9
    752	    0A4B  80 3E	0117r DA		 cmp	 dta,0dah
    753	    0A50  75 02				 jnz	 $+4
    754	    0A52  E9 0ECA			 jmp	 mda
    755	    0A55  80 3E	0117r DB		 cmp	 dta,0dbh
    756	    0A5A  75 02				 jnz	 $+4
    757	    0A5C  E9 0ECF			 jmp	 mdb
    758	    0A5F  80 3E	0117r DC		 cmp	 dta,0dch
    759	    0A64  75 02				 jnz	 $+4
    760	    0A66  E9 0ED4			 jmp	 mdc
    761	    0A69  80 3E	0117r DD		 cmp	 dta,0ddh
    762	    0A6E  75 02				 jnz	 $+4
    763	    0A70  E9 0ED9			 jmp	 mdd
    764	    0A73  80 3E	0117r DE		 cmp	 dta,0deh
    765	    0A78  75 02				 jnz	 $+4
    766	    0A7A  E9 0EDE			 jmp	 mde
    767	    0A7D  80 3E	0117r DF		 cmp	 dta,0dfh
    768	    0A82  75 02				 jnz	 $+4
    769	    0A84  E9 0EFB			 jmp	 mdf
    770
    771	    0A87  80 3E	0117r E0	 ae:	 cmp	 dta,0e0h
    772	    0A8C  75 02				 jnz	 $+4
    773	    0A8E  E9 0F18			 jmp	 me0
    774	    0A91  80 3E	0117r E1		 cmp	 dta,0e1h
    775	    0A96  75 02				 jnz	 $+4
    776	    0A98  E9 0F20			 jmp	 me1
    777	    0A9B  80 3E	0117r E2		 cmp	 dta,0e2h
    778	    0AA0  75 02				 jnz	 $+4
    779	    0AA2  E9 0F28			 jmp	 me2
    780	    0AA5  80 3E	0117r E3		 cmp	 dta,0e3h
    781	    0AAA  75 02				 jnz	 $+4
    782	    0AAC  E9 0F30			 jmp	 me3
    783	    0AAF  80 3E	0117r E4		 cmp	 dta,0e4h
    784	    0AB4  75 02				 jnz	 $+4
    785	    0AB6  E9 0F38			 jmp	 me4
    786	    0AB9  80 3E	0117r E5		 cmp	 dta,0e5h
    787	    0ABE  75 02				 jnz	 $+4
    788	    0AC0  E9 0F40			 jmp	 me5
    789	    0AC3  80 3E	0117r E6		 cmp	 dta,0e6h
    790	    0AC8  75 02				 jnz	 $+4
    791	    0ACA  E9 0F48			 jmp	 me6
    792	    0ACD  80 3E	0117r E7		 cmp	 dta,0e7h
    793	    0AD2  75 02				 jnz	 $+4
    794	    0AD4  E9 0F50			 jmp	 me7
    795	    0AD7  80 3E	0117r E8		 cmp	 dta,0e8h
    796	    0ADC  75 02				 jnz	 $+4
    797	    0ADE  E9 0F58			 jmp	 me8
    798	    0AE1  80 3E	0117r E9		 cmp	 dta,0e9h
Turbo Assembler	 Version 2.0	    05/29/96 02:11:59	    Page 15
dasm_c11.ASM



    799	    0AE6  75 02				 jnz	 $+4
    800	    0AE8  E9 0F60			 jmp	 me9
    801	    0AEB  80 3E	0117r EA		 cmp	 dta,0eah
    802	    0AF0  75 02				 jnz	 $+4
    803	    0AF2  E9 0F68			 jmp	 mea
    804	    0AF5  80 3E	0117r EB		 cmp	 dta,0ebh
    805	    0AFA  75 02				 jnz	 $+4
    806	    0AFC  E9 0F70			 jmp	 meb
    807	    0AFF  80 3E	0117r EC		 cmp	 dta,0ech
    808	    0B04  75 02				 jnz	 $+4
    809	    0B06  E9 0F78			 jmp	 mec
    810	    0B09  80 3E	0117r ED		 cmp	 dta,0edh
    811	    0B0E  75 02				 jnz	 $+4
    812	    0B10  E9 0F80			 jmp	 med
    813	    0B13  80 3E	0117r EE		 cmp	 dta,0eeh
    814	    0B18  75 02				 jnz	 $+4
    815	    0B1A  E9 0F88			 jmp	 mee
    816	    0B1D  80 3E	0117r EF		 cmp	 dta,0efh
    817	    0B22  75 02				 jnz	 $+4
    818	    0B24  E9 0FAB			 jmp	 mef
    819
    820	    0B27  80 3E	0117r F0	 af:	 cmp	 dta,0f0h
    821	    0B2C  75 02				 jnz	 $+4
    822	    0B2E  E9 0FCE			 jmp	 mf0
    823	    0B31  80 3E	0117r F1		 cmp	 dta,0f1h
    824	    0B36  75 02				 jnz	 $+4
    825	    0B38  E9 0FD6			 jmp	 mf1
    826	    0B3B  80 3E	0117r F2		 cmp	 dta,0f2h
    827	    0B40  75 02				 jnz	 $+4
    828	    0B42  E9 0FDE			 jmp	 mf2
    829	    0B45  80 3E	0117r F3		 cmp	 dta,0f3h
    830	    0B4A  75 02				 jnz	 $+4
    831	    0B4C  E9 0FE6			 jmp	 mf3
    832	    0B4F  80 3E	0117r F4		 cmp	 dta,0f4h
    833	    0B54  75 02				 jnz	 $+4
    834	    0B56  E9 0FEE			 jmp	 mf4
    835	    0B59  80 3E	0117r F5		 cmp	 dta,0f5h
    836	    0B5E  75 02				 jnz	 $+4
    837	    0B60  E9 0FF6			 jmp	 mf5
    838	    0B63  80 3E	0117r F6		 cmp	 dta,0f6h
    839	    0B68  75 02				 jnz	 $+4
    840	    0B6A  E9 0FFE			 jmp	 mf6
    841	    0B6D  80 3E	0117r F7		 cmp	 dta,0f7h
    842	    0B72  75 02				 jnz	 $+4
    843	    0B74  E9 1006			 jmp	 mf7
    844	    0B77  80 3E	0117r F8		 cmp	 dta,0f8h
    845	    0B7C  75 02				 jnz	 $+4
    846	    0B7E  E9 100E			 jmp	 mf8
    847	    0B81  80 3E	0117r F9		 cmp	 dta,0f9h
    848	    0B86  75 02				 jnz	 $+4
    849	    0B88  E9 1016			 jmp	 mf9
    850	    0B8B  80 3E	0117r FA		 cmp	 dta,0fah
    851	    0B90  75 02				 jnz	 $+4
    852	    0B92  E9 101E			 jmp	 mfa
    853	    0B95  80 3E	0117r FB		 cmp	 dta,0fbh
    854	    0B9A  75 02				 jnz	 $+4
    855	    0B9C  E9 1026			 jmp	 mfb
Turbo Assembler	 Version 2.0	    05/29/96 02:11:59	    Page 16
dasm_c11.ASM



    856	    0B9F  80 3E	0117r FC		 cmp	 dta,0fch
    857	    0BA4  75 02				 jnz	 $+4
    858	    0BA6  E9 102E			 jmp	 mfc
    859	    0BA9  80 3E	0117r FD		 cmp	 dta,0fdh
    860	    0BAE  75 02				 jnz	 $+4
    861	    0BB0  E9 1036			 jmp	 mfd
    862	    0BB3  80 3E	0117r FE		 cmp	 dta,0feh
    863	    0BB8  75 02				 jnz	 $+4
    864	    0BBA  E9 103E			 jmp	 mfe
    865					 ;	 cmp	 dta,0ffh
    866					 ;	 jnz	 $+4
    867					 ;	 jmp	 mff
    868					 ;#1
    869	    0BBD  BA 1E01r		 m00:	 lea	 dx,c00	 ;test
    870	    0BC0  E8 1134			 call	 rec5
    871	    0BC3  E8 1179			 call	 nextb
    872	    0BC6  E9 108C			 jmp	 enco
    873	    0BC9  BA 1E06r		 m01:	 lea	 dx,c01	 ;nop
    874	    0BCC  E8 1128			 call	 rec5
    875	    0BCF  E8 116D			 call	 nextb
    876	    0BD2  E9 1080			 jmp	 enco
    877	    0BD5  BA 1E0Br		 m02:	 lea	 dx,c02	 ;idiv
    878	    0BD8  E8 111C			 call	 rec5
    879	    0BDB  E8 1161			 call	 nextb
    880	    0BDE  E9 1074			 jmp	 enco
    881	    0BE1  BA 1E10r		 m03:	 lea	 dx,c03	 ;fdiv
    882	    0BE4  E8 1110			 call	 rec5
    883	    0BE7  E8 1155			 call	 nextb
    884	    0BEA  E9 1068			 jmp	 enco
    885	    0BED  BA 1E15r		 m04:	 lea	 dx,c04	 ;lsrd
    886	    0BF0  E8 1104			 call	 rec5
    887	    0BF3  E8 1149			 call	 nextb
    888	    0BF6  E9 105C			 jmp	 enco
    889	    0BF9  BA 1E1Ar		 m05:	 lea	 dx,c05	 ;lsld
    890	    0BFC  E8 10F8			 call	 rec5
    891	    0BFF  E8 113D			 call	 nextb
    892	    0C02  E9 1050			 jmp	 enco
    893	    0C05  BA 1E1Fr		 m06:	 lea	 dx,c06	 ;tap
    894	    0C08  E8 10EC			 call	 rec5
    895	    0C0B  E8 1131			 call	 nextb
    896	    0C0E  E9 1044			 jmp	 enco
    897	    0C11  BA 1E24r		 m07:	 lea	 dx,c07	 ;tpa
    898	    0C14  E8 10E0			 call	 rec5
    899	    0C17  E8 1125			 call	 nextb
    900	    0C1A  E9 1038			 jmp	 enco
    901	    0C1D  80 3E	0126r 01	 m08:	 cmp	 shift2,1
    902	    0C22  74 0E	90 90			 jz	 m081
    903	    0C26  BA 1E29r			 lea	 dx,c08	 ;inx(y)
    904	    0C29  E8 10CB			 call	 rec5
    905	    0C2C  E8 1110			 call	 nextb
    906	    0C2F  E9 1023			 jmp	 enco
    907	    0C32  BA 1E2Er		 m081:	 lea	 dx,c081 ;iny
    908	    0C35  E8 10BF			 call	 rec5
    909	    0C38  E8 1104			 call	 nextb
    910	    0C3B  E9 1017			 jmp	 enco
    911
    912	    0C3E  BA 1E33r		 m09:	 lea	 dx,c09	 ;dex
Turbo Assembler	 Version 2.0	    05/29/96 02:11:59	    Page 17
dasm_c11.ASM



    913	    0C41  E8 10B3			 call	 rec5
    914	    0C44  E8 10F8			 call	 nextb
    915	    0C47  E9 100B			 jmp	 enco
    916	    0C4A  BA 1E38r		 m0a:	 lea	 dx,c0a	 ;clv
    917	    0C4D  E8 10A7			 call	 rec5
    918	    0C50  E8 10EC			 call	 nextb
    919	    0C53  E9 0FFF			 jmp	 enco
    920	    0C56  BA 1E3Dr		 m0b:	 lea	 dx,c0b	 ;sev
    921	    0C59  E8 109B			 call	 rec5
    922	    0C5C  E8 10E0			 call	 nextb
    923	    0C5F  E9 0FF3			 jmp	 enco
    924	    0C62  BA 1E42r		 m0c:	 lea	 dx,c0c	 ;clc
    925	    0C65  E8 108F			 call	 rec5
    926	    0C68  E8 10D4			 call	 nextb
    927	    0C6B  E9 0FE7			 jmp	 enco
    928	    0C6E  BA 1E47r		 m0d:	 lea	 dx,c0d	 ;sec
    929	    0C71  E8 1083			 call	 rec5
    930	    0C74  E8 10C8			 call	 nextb
    931	    0C77  E9 0FDB			 jmp	 enco
    932	    0C7A  BA 1E4Cr		 m0e:	 lea	 dx,c0e	 ;cli
    933	    0C7D  E8 1077			 call	 rec5
    934	    0C80  E8 10BC			 call	 nextb
    935	    0C83  E9 0FCF			 jmp	 enco
    936	    0C86  BA 1E51r		 m0f:	 lea	 dx,c0f	 ;sei
    937	    0C89  E8 106B			 call	 rec5
    938	    0C8C  E8 10B0			 call	 nextb
    939	    0C8F  E9 0FC3			 jmp	 enco
    940	    0C92  BA 1E56r		 m10:	 lea	 dx,c10	 ;sba
    941	    0C95  E8 105F			 call	 rec5
    942	    0C98  E8 10A4			 call	 nextb
    943	    0C9B  E9 0FB7			 jmp	 enco
    944	    0C9E  BA 1E5Br		 m11:	 lea	 dx,c11	 ;cba
    945	    0CA1  E8 1053			 call	 rec5
    946	    0CA4  E8 1098			 call	 nextb
    947	    0CA7  E9 0FAB			 jmp	 enco
    948	    0CAA  BA 1E60r		 m12:	 lea	 dx,c12	 ;brset
    949	    0CAD  E8 1047			 call	 rec5
    950	    0CB0  E8 10D7			 call	 p8a
    951	    0CB3  E8 104D			 call	 prob
    952	    0CB6  E8 10C9			 call	 p8d
    953	    0CB9  E8 1047			 call	 prob
    954	    0CBC  E8 10E4			 call	 p8s
    955	    0CBF  E8 107D			 call	 nextb
    956	    0CC2  E9 0F90			 jmp	 enco
    957	    0CC5  BA 1E65r		 m13:	 lea	 dx,c13	 ;brclr
    958	    0CC8  E8 102C			 call	 rec5
    959	    0CCB  E8 10BC			 call	 p8a
    960	    0CCE  E8 1032			 call	 prob
    961	    0CD1  E8 10AE			 call	 p8d
    962	    0CD4  E8 102C			 call	 prob
    963	    0CD7  E8 10C9			 call	 p8s
    964	    0CDA  E8 1062			 call	 nextb
    965	    0CDD  E9 0F75			 jmp	 enco
    966	    0CE0  BA 1E6Ar		 m14:	 lea	 dx,c14	 ;bset
    967	    0CE3  E8 1011			 call	 rec5
    968	    0CE6  E8 10A1			 call	 p8a
    969	    0CE9  E8 1017			 call	 prob
Turbo Assembler	 Version 2.0	    05/29/96 02:11:59	    Page 18
dasm_c11.ASM



    970	    0CEC  E8 1093			 call	 p8d
    971	    0CEF  E8 104D			 call	 nextb
    972	    0CF2  E9 0F60			 jmp	 enco
    973	    0CF5  BA 1E6Fr		 m15:	 lea	 dx,c15	 ;bclr
    974	    0CF8  E8 0FFC			 call	 rec5
    975	    0CFB  E8 108C			 call	 p8a
    976	    0CFE  E8 1002			 call	 prob
    977	    0D01  E8 107E			 call	 p8d
    978	    0D04  E8 1038			 call	 nextb
    979	    0D07  E9 0F4B			 jmp	 enco
    980	    0D0A  BA 1E74r		 m16:	 lea	 dx,c16	 ;tab
    981	    0D0D  E8 0FE7			 call	 rec5
    982	    0D10  E8 102C			 call	 nextb
    983	    0D13  E9 0F3F			 jmp	 enco
    984	    0D16  BA 1E79r		 m17:	 lea	 dx,c17	 ;tba
    985	    0D19  E8 0FDB			 call	 rec5
    986	    0D1C  E8 1020			 call	 nextb
    987	    0D1F  E9 0F33			 jmp	 enco
    988	    0D22  E9 0F4D		 m18:	 jmp	 paje2
    989	    0D25  BA 1E83r		 m19:	 lea	 dx,c19	 ;daa
    990	    0D28  E8 0FCC			 call	 rec5
    991	    0D2B  E8 1011			 call	 nextb
    992	    0D2E  E9 0F24			 jmp	 enco
    993	    0D31  E9 0F52		 m1a:	 jmp	 paje3
    994	    0D34  BA 1E8Dr		 m1b:	 lea	 dx,c1b	 ;aba
    995	    0D37  E8 0FBD			 call	 rec5
    996	    0D3A  E8 1002			 call	 nextb
    997	    0D3D  E9 0F15			 jmp	 enco
    998	    0D40  BA 1E92r		 m1c:	 lea	 dx,c1c	 ;bset
    999	    0D43  E8 0FB1			 call	 rec5
   1000	    0D46  E8 1041			 call	 p8a
   1001	    0D49  E8 0FC0			 call	 xprob	 ;(--),x
   1002	    0D4C  E8 1033			 call	 p8d
   1003	    0D4F  E8 0FED			 call	 nextb
   1004	    0D52  E9 0F00			 jmp	 enco
   1005	    0D55  BA 1E97r		 m1d:	 lea	 dx,c1d	 ;bclr
   1006	    0D58  E8 0F9C			 call	 rec5
   1007	    0D5B  E8 102C			 call	 p8a
   1008	    0D5E  E8 0FAB			 call	 xprob	 ;(--),x
   1009	    0D61  E8 101E			 call	 p8d
   1010	    0D64  E8 0FD8			 call	 nextb
   1011	    0D67  E9 0EEB			 jmp	 enco
   1012	    0D6A  BA 1E9Cr		 m1e:	 lea	 dx,c1e	 ;brset
   1013	    0D6D  E8 0F87			 call	 rec5
   1014	    0D70  E8 1017			 call	 p8a
   1015	    0D73  E8 0F96			 call	 xprob
   1016	    0D76  E8 1009			 call	 p8d
   1017	    0D79  E8 0F87			 call	 prob
   1018	    0D7C  E8 1024			 call	 p8s
   1019	    0D7F  E8 0FBD			 call	 nextb
   1020	    0D82  E9 0ED0			 jmp	 enco
   1021	    0D85  BA 1EA1r		 m1f:	 lea	 dx,c1f	 ;brclr
   1022	    0D88  E8 0F6C			 call	 rec5
   1023	    0D8B  E8 0FFC			 call	 p8a
   1024	    0D8E  E8 0F7B			 call	 xprob
   1025	    0D91  E8 0FEE			 call	 p8d
   1026	    0D94  E8 0F6C			 call	 prob
Turbo Assembler	 Version 2.0	    05/29/96 02:11:59	    Page 19
dasm_c11.ASM



   1027	    0D97  E8 1009			 call	 p8s
   1028	    0D9A  E8 0FA2			 call	 nextb
   1029	    0D9D  E9 0EB5			 jmp	 enco
   1030	    0DA0  BA 1EA6r		 m20:	 lea	 dx,c20	 ;bra
   1031	    0DA3  E8 0F51			 call	 rec5
   1032	    0DA6  E8 0FFA			 call	 p8s
   1033	    0DA9  E8 0F93			 call	 nextb
   1034	    0DAC  E9 0EA6			 jmp	 enco
   1035	    0DAF  BA 1EABr		 m21:	 lea	 dx,c21	 ;brn
   1036	    0DB2  E8 0F42			 call	 rec5
   1037	    0DB5  E8 0FEB			 call	 p8s
   1038	    0DB8  E8 0F84			 call	 nextb
   1039	    0DBB  E9 0E97			 jmp	 enco
   1040	    0DBE  BA 1EB0r		 m22:	 lea	 dx,c22	 ;bhi
   1041	    0DC1  E8 0F33			 call	 rec5
   1042	    0DC4  E8 0FDC			 call	 p8s
   1043	    0DC7  E8 0F75			 call	 nextb
   1044	    0DCA  E9 0E88			 jmp	 enco
   1045	    0DCD  BA 1EB5r		 m23:	 lea	 dx,c23	 ;bls
   1046	    0DD0  E8 0F24			 call	 rec5
   1047	    0DD3  E8 0FCD			 call	 p8s
   1048	    0DD6  E8 0F66			 call	 nextb
   1049	    0DD9  E9 0E79			 jmp	 enco
   1050	    0DDC  BA 1EBAr		 m24:	 lea	 dx,c24	 ;bcc
   1051	    0DDF  E8 0F15			 call	 rec5
   1052	    0DE2  E8 0FBE			 call	 p8s
   1053	    0DE5  E8 0F57			 call	 nextb
   1054	    0DE8  E9 0E6A			 jmp	 enco
   1055	    0DEB  BA 1EBFr		 m25:	 lea	 dx,c25	 ;bcs
   1056	    0DEE  E8 0F06			 call	 rec5
   1057	    0DF1  E8 0FAF			 call	 p8s
   1058	    0DF4  E8 0F48			 call	 nextb
   1059	    0DF7  E9 0E5B			 jmp	 enco
   1060	    0DFA  BA 1EC4r		 m26:	 lea	 dx,c26	 ;bne
   1061	    0DFD  E8 0EF7			 call	 rec5
   1062	    0E00  E8 0FA0			 call	 p8s
   1063	    0E03  E8 0F39			 call	 nextb
   1064	    0E06  E9 0E4C			 jmp	 enco
   1065	    0E09  BA 1EC9r		 m27:	 lea	 dx,c27	 ;beq
   1066	    0E0C  E8 0EE8			 call	 rec5
   1067	    0E0F  E8 0F91			 call	 p8s
   1068	    0E12  E8 0F2A			 call	 nextb
   1069	    0E15  E9 0E3D			 jmp	 enco
   1070	    0E18  BA 1ECEr		 m28:	 lea	 dx,c28	 ;bvc
   1071	    0E1B  E8 0ED9			 call	 rec5
   1072	    0E1E  E8 0F82			 call	 p8s
   1073	    0E21  E8 0F1B			 call	 nextb
   1074	    0E24  E9 0E2E			 jmp	 enco
   1075	    0E27  BA 1ED3r		 m29:	 lea	 dx,c29	 ;bvs
   1076	    0E2A  E8 0ECA			 call	 rec5
   1077	    0E2D  E8 0F73			 call	 p8s
   1078	    0E30  E8 0F0C			 call	 nextb
   1079	    0E33  E9 0E1F			 jmp	 enco
   1080	    0E36  BA 1ED8r		 m2a:	 lea	 dx,c2a	 ;bpl
   1081	    0E39  E8 0EBB			 call	 rec5
   1082	    0E3C  E8 0F64			 call	 p8s
   1083	    0E3F  E8 0EFD			 call	 nextb
Turbo Assembler	 Version 2.0	    05/29/96 02:11:59	    Page 20
dasm_c11.ASM



   1084	    0E42  E9 0E10			 jmp	 enco
   1085	    0E45  BA 1EDDr		 m2b:	 lea	 dx,c2b	 ;bmi
   1086	    0E48  E8 0EAC			 call	 rec5
   1087	    0E4B  E8 0F55			 call	 p8s
   1088	    0E4E  E8 0EEE			 call	 nextb
   1089	    0E51  E9 0E01			 jmp	 enco
   1090	    0E54  BA 1EE2r		 m2c:	 lea	 dx,c2c	 ;bge
   1091	    0E57  E8 0E9D			 call	 rec5
   1092	    0E5A  E8 0F46			 call	 p8s
   1093	    0E5D  E8 0EDF			 call	 nextb
   1094	    0E60  E9 0DF2			 jmp	 enco
   1095	    0E63  BA 1EE7r		 m2d:	 lea	 dx,c2d	 ;blt
   1096	    0E66  E8 0E8E			 call	 rec5
   1097	    0E69  E8 0F37			 call	 p8s
   1098	    0E6C  E8 0ED0			 call	 nextb
   1099	    0E6F  E9 0DE3			 jmp	 enco
   1100	    0E72  BA 1EECr		 m2e:	 lea	 dx,c2e	 ;bgt
   1101	    0E75  E8 0E7F			 call	 rec5
   1102	    0E78  E8 0F28			 call	 p8s
   1103	    0E7B  E8 0EC1			 call	 nextb
   1104	    0E7E  E9 0DD4			 jmp	 enco
   1105	    0E81  BA 1EF1r		 m2f:	 lea	 dx,c2f	 ;ble
   1106	    0E84  E8 0E70			 call	 rec5
   1107	    0E87  E8 0F19			 call	 p8s
   1108	    0E8A  E8 0EB2			 call	 nextb
   1109	    0E8D  E9 0DC5			 jmp	 enco
   1110
   1111	    0E90  80 3E	0126r 01	 m30:	 cmp	 shift2,1
   1112	    0E95  74 0E	90 90			 jz	 m301
   1113	    0E99  BA 1EF6r			 lea	 dx,c30	 ;tsx(y)
   1114	    0E9C  E8 0E58			 call	 rec5
   1115	    0E9F  E8 0E9D			 call	 nextb
   1116	    0EA2  E9 0DB0			 jmp	 enco
   1117	    0EA5  BA 1EFBr		 m301:	 lea	 dx,c301 ;tsy
   1118	    0EA8  E8 0E4C			 call	 rec5
   1119	    0EAB  E8 0E91			 call	 nextb
   1120	    0EAE  E9 0DA4			 jmp	 enco
   1121
   1122	    0EB1  BA 1F00r		 m31:	 lea	 dx,c31	 ;ins
   1123	    0EB4  E8 0E40			 call	 rec5
   1124	    0EB7  E8 0E85			 call	 nextb
   1125	    0EBA  E9 0D98			 jmp	 enco
   1126	    0EBD  BA 1F05r		 m32:	 lea	 dx,c32	 ;pula
   1127	    0EC0  E8 0E34			 call	 rec5
   1128	    0EC3  E8 0E79			 call	 nextb
   1129	    0EC6  E9 0D8C			 jmp	 enco
   1130	    0EC9  BA 1F0Ar		 m33:	 lea	 dx,c33	 ;pulb
   1131	    0ECC  E8 0E28			 call	 rec5
   1132	    0ECF  E8 0E6D			 call	 nextb
   1133	    0ED2  E9 0D80			 jmp	 enco
   1134	    0ED5  BA 1F0Fr		 m34:	 lea	 dx,c34	 ;des
   1135	    0ED8  E8 0E1C			 call	 rec5
   1136	    0EDB  E8 0E61			 call	 nextb
   1137	    0EDE  E9 0D74			 jmp	 enco
   1138	    0EE1  80 3E	0126r 01	 m35:	 cmp	 shift2,1
   1139	    0EE6  74 0E	90 90			 jz	 m351
   1140	    0EEA  BA 1F14r			 lea	 dx,c35	 ;tx(y)s
Turbo Assembler	 Version 2.0	    05/29/96 02:11:59	    Page 21
dasm_c11.ASM



   1141	    0EED  E8 0E07			 call	 rec5
   1142	    0EF0  E8 0E4C			 call	 nextb
   1143	    0EF3  E9 0D5F			 jmp	 enco
   1144	    0EF6  BA 1F19r		 m351:	 lea	 dx,c351 ;tys
   1145	    0EF9  E8 0DFB			 call	 rec5
   1146	    0EFC  E8 0E40			 call	 nextb
   1147	    0EFF  E9 0D53			 jmp	 enco
   1148
   1149	    0F02  BA 1F1Er		 m36:	 lea	 dx,c36	 ;psha
   1150	    0F05  E8 0DEF			 call	 rec5
   1151	    0F08  E8 0E34			 call	 nextb
   1152	    0F0B  E9 0D47			 jmp	 enco
   1153	    0F0E  BA 1F23r		 m37:	 lea	 dx,c37	 ;pshb
   1154	    0F11  E8 0DE3			 call	 rec5
   1155	    0F14  E8 0E28			 call	 nextb
   1156	    0F17  E9 0D3B			 jmp	 enco
   1157	    0F1A  80 3E	0126r 01	 m38:	 cmp	 shift2,1
   1158	    0F1F  74 0E	90 90			 jz	 m381
   1159	    0F23  BA 1F28r			 lea	 dx,c38	 ;pulx
   1160	    0F26  E8 0DCE			 call	 rec5
   1161	    0F29  E8 0E13			 call	 nextb
   1162	    0F2C  E9 0D26			 jmp	 enco
   1163	    0F2F  BA 1F2Dr		 m381:	 lea	 dx,c381 ;puly
   1164	    0F32  E8 0DC2			 call	 rec5
   1165	    0F35  E8 0E07			 call	 nextb
   1166	    0F38  E9 0D1A			 jmp	 enco
   1167	    0F3B  BA 1F32r		 m39:	 lea	 dx,c39	 ;rts
   1168	    0F3E  E8 0DB6			 call	 rec5
   1169	    0F41  E8 0DFB			 call	 nextb
   1170	    0F44  E9 0D0E			 jmp	 enco
   1171	    0F47  80 3E	0126r 01	 m3a:	 cmp	 shift2,1
   1172	    0F4C  74 0E	90 90			 jz	 m3a1
   1173	    0F50  BA 1F37r			 lea	 dx,c3a	 ;abx(y)
   1174	    0F53  E8 0DA1			 call	 rec5
   1175	    0F56  E8 0DE6			 call	 nextb
   1176	    0F59  E9 0CF9			 jmp	 enco
   1177	    0F5C  BA 1F3Cr		 m3a1:	 lea	 dx,c3a1 ;aby
   1178	    0F5F  E8 0D95			 call	 rec5
   1179	    0F62  E8 0DDA			 call	 nextb
   1180	    0F65  E9 0CED			 jmp	 enco
   1181
   1182	    0F68  BA 1F41r		 m3b:	 lea	 dx,c3b	 ;rti
   1183	    0F6B  E8 0D89			 call	 rec5
   1184	    0F6E  E8 0DCE			 call	 nextb
   1185	    0F71  E9 0CE1			 jmp	 enco
   1186	    0F74  80 3E	0126r 01	 m3c:	 cmp	 shift2,1
   1187	    0F79  74 0E	90 90			 jz	 m3c1
   1188	    0F7D  BA 1F46r			 lea	 dx,c3c	 ;pshx(y)
   1189	    0F80  E8 0D74			 call	 rec5
   1190	    0F83  E8 0DB9			 call	 nextb
   1191	    0F86  E9 0CCC			 jmp	 enco
   1192	    0F89  BA 1F4Br		 m3c1:	 lea	 dx,c3c1 ;pshy
   1193	    0F8C  E8 0D68			 call	 rec5
   1194	    0F8F  E8 0DAD			 call	 nextb
   1195	    0F92  E9 0CC0			 jmp	 enco
   1196
   1197	    0F95  BA 1F50r		 m3d:	 lea	 dx,c3d	 ;mul
Turbo Assembler	 Version 2.0	    05/29/96 02:11:59	    Page 22
dasm_c11.ASM



   1198	    0F98  E8 0D5C			 call	 rec5
   1199	    0F9B  E8 0DA1			 call	 nextb
   1200	    0F9E  E9 0CB4			 jmp	 enco
   1201	    0FA1  BA 1F55r		 m3e:	 lea	 dx,c3e	 ;wai
   1202	    0FA4  E8 0D50			 call	 rec5
   1203	    0FA7  E8 0D95			 call	 nextb
   1204	    0FAA  E9 0CA8			 jmp	 enco
   1205	    0FAD  BA 1F5Ar		 m3f:	 lea	 dx,c3f	 ;swi
   1206	    0FB0  E8 0D44			 call	 rec5
   1207	    0FB3  E8 0D89			 call	 nextb
   1208	    0FB6  E9 0C9C			 jmp	 enco
   1209	    0FB9  BA 1F5Fr		 m40:	 lea	 dx,c40	 ;nega
   1210	    0FBC  E8 0D38			 call	 rec5
   1211	    0FBF  E8 0D7D			 call	 nextb
   1212	    0FC2  E9 0C90			 jmp	 enco
   1213	    0FC5  BA 235Br		 m41:	 lea	 dx,c00a ;(na)
   1214	    0FC8  E8 0D2C			 call	 rec5
   1215	    0FCB  E8 0D71			 call	 nextb
   1216	    0FCE  E9 0C84			 jmp	 enco
   1217	    0FD1  BA 235Br		 m42:	 lea	 dx,c00a ;(na)
   1218	    0FD4  E8 0D20			 call	 rec5
   1219	    0FD7  E8 0D65			 call	 nextb
   1220	    0FDA  E9 0C78			 jmp	 enco
   1221	    0FDD  BA 1F6Er		 m43:	 lea	 dx,c43	 ;coma
   1222	    0FE0  E8 0D14			 call	 rec5
   1223	    0FE3  E8 0D59			 call	 nextb
   1224	    0FE6  E9 0C6C			 jmp	 enco
   1225	    0FE9  BA 1F73r		 m44:	 lea	 dx,c44	 ;lsra
   1226	    0FEC  E8 0D08			 call	 rec5
   1227	    0FEF  E8 0D4D			 call	 nextb
   1228	    0FF2  E9 0C60			 jmp	 enco
   1229	    0FF5  BA 235Br		 m45:	 lea	 dx,c00a ;(na)
   1230	    0FF8  E8 0CFC			 call	 rec5
   1231	    0FFB  E8 0D41			 call	 nextb
   1232	    0FFE  E9 0C54			 jmp	 enco
   1233	    1001  BA 1F7Dr		 m46:	 lea	 dx,c46	 ;rora
   1234	    1004  E8 0CF0			 call	 rec5
   1235	    1007  E8 0D35			 call	 nextb
   1236	    100A  E9 0C48			 jmp	 enco
   1237	    100D  BA 1F82r		 m47:	 lea	 dx,c47	 ;asra
   1238	    1010  E8 0CE4			 call	 rec5
   1239	    1013  E8 0D29			 call	 nextb
   1240	    1016  E9 0C3C			 jmp	 enco
   1241	    1019  BA 1F87r		 m48:	 lea	 dx,c48	 ;asla
   1242	    101C  E8 0CD8			 call	 rec5
   1243	    101F  E8 0D1D			 call	 nextb
   1244	    1022  E9 0C30			 jmp	 enco
   1245	    1025  BA 1F8Cr		 m49:	 lea	 dx,c49	 ;rola
   1246	    1028  E8 0CCC			 call	 rec5
   1247	    102B  E8 0D11			 call	 nextb
   1248	    102E  E9 0C24			 jmp	 enco
   1249	    1031  BA 1F91r		 m4a:	 lea	 dx,c4a	 ;deca
   1250	    1034  E8 0CC0			 call	 rec5
   1251	    1037  E8 0D05			 call	 nextb
   1252	    103A  E9 0C18			 jmp	 enco
   1253	    103D  BA 235Br		 m4b:	 lea	 dx,c00a ;(na)
   1254	    1040  E8 0CB4			 call	 rec5
Turbo Assembler	 Version 2.0	    05/29/96 02:11:59	    Page 23
dasm_c11.ASM



   1255	    1043  E8 0CF9			 call	 nextb
   1256	    1046  E9 0C0C			 jmp	 enco
   1257	    1049  BA 1F9Br		 m4c:	 lea	 dx,c4c	 ;inca
   1258	    104C  E8 0CA8			 call	 rec5
   1259	    104F  E8 0CED			 call	 nextb
   1260	    1052  E9 0C00			 jmp	 enco
   1261	    1055  BA 1FA0r		 m4d:	 lea	 dx,c4d	 ;tsta
   1262	    1058  E8 0C9C			 call	 rec5
   1263	    105B  E8 0CE1			 call	 nextb
   1264	    105E  E9 0BF4			 jmp	 enco
   1265	    1061  BA 235Br		 m4e:	 lea	 dx,c00a ;(na)
   1266	    1064  E8 0C90			 call	 rec5
   1267	    1067  E8 0CD5			 call	 nextb
   1268	    106A  E9 0BE8			 jmp	 enco
   1269	    106D  BA 1FAAr		 m4f:	 lea	 dx,c4f	 ;clra
   1270	    1070  E8 0C84			 call	 rec5
   1271	    1073  E8 0CC9			 call	 nextb
   1272	    1076  E9 0BDC			 jmp	 enco
   1273
   1274	    1079  BA 1FAFr		 m50:	 lea	 dx,c50	 ;negb
   1275	    107C  E8 0C78			 call	 rec5
   1276	    107F  E8 0CBD			 call	 nextb
   1277	    1082  E9 0BD0			 jmp	 enco
   1278	    1085  BA 235Br		 m51:	 lea	 dx,c00a ;(na)
   1279	    1088  E8 0C6C			 call	 rec5
   1280	    108B  E8 0CB1			 call	 nextb
   1281	    108E  E9 0BC4			 jmp	 enco
   1282	    1091  BA 235Br		 m52:	 lea	 dx,c00a ;(na)
   1283	    1094  E8 0C60			 call	 rec5
   1284	    1097  E8 0CA5			 call	 nextb
   1285	    109A  E9 0BB8			 jmp	 enco
   1286	    109D  BA 1FBEr		 m53:	 lea	 dx,c53	 ;comb
   1287	    10A0  E8 0C54			 call	 rec5
   1288	    10A3  E8 0C99			 call	 nextb
   1289	    10A6  E9 0BAC			 jmp	 enco
   1290	    10A9  BA 1FC3r		 m54:	 lea	 dx,c54	 ;lsrb
   1291	    10AC  E8 0C48			 call	 rec5
   1292	    10AF  E8 0C8D			 call	 nextb
   1293	    10B2  E9 0BA0			 jmp	 enco
   1294	    10B5  BA 235Br		 m55:	 lea	 dx,c00a ;(na)
   1295	    10B8  E8 0C3C			 call	 rec5
   1296	    10BB  E8 0C81			 call	 nextb
   1297	    10BE  E9 0B94			 jmp	 enco
   1298	    10C1  BA 1FCDr		 m56:	 lea	 dx,c56	 ;rorb
   1299	    10C4  E8 0C30			 call	 rec5
   1300	    10C7  E8 0C75			 call	 nextb
   1301	    10CA  E9 0B88			 jmp	 enco
   1302	    10CD  BA 1FD2r		 m57:	 lea	 dx,c57	 ;asrb
   1303	    10D0  E8 0C24			 call	 rec5
   1304	    10D3  E8 0C69			 call	 nextb
   1305	    10D6  E9 0B7C			 jmp	 enco
   1306	    10D9  BA 1FD7r		 m58:	 lea	 dx,c58	 ;aslb
   1307	    10DC  E8 0C18			 call	 rec5
   1308	    10DF  E8 0C5D			 call	 nextb
   1309	    10E2  E9 0B70			 jmp	 enco
   1310	    10E5  BA 1FDCr		 m59:	 lea	 dx,c59	 ;rolb
   1311	    10E8  E8 0C0C			 call	 rec5
Turbo Assembler	 Version 2.0	    05/29/96 02:11:59	    Page 24
dasm_c11.ASM



   1312	    10EB  E8 0C51			 call	 nextb
   1313	    10EE  E9 0B64			 jmp	 enco
   1314	    10F1  BA 1FE1r		 m5a:	 lea	 dx,c5a	 ;decb
   1315	    10F4  E8 0C00			 call	 rec5
   1316	    10F7  E8 0C45			 call	 nextb
   1317	    10FA  E9 0B58			 jmp	 enco
   1318	    10FD  BA 235Br		 m5b:	 lea	 dx,c00a ;(na)
   1319	    1100  E8 0BF4			 call	 rec5
   1320	    1103  E8 0C39			 call	 nextb
   1321	    1106  E9 0B4C			 jmp	 enco
   1322	    1109  BA 1FEBr		 m5c:	 lea	 dx,c5c	 ;incb
   1323	    110C  E8 0BE8			 call	 rec5
   1324	    110F  E8 0C2D			 call	 nextb
   1325	    1112  E9 0B40			 jmp	 enco
   1326	    1115  BA 1FF0r		 m5d:	 lea	 dx,c5d	 ;tstb
   1327	    1118  E8 0BDC			 call	 rec5
   1328	    111B  E8 0C21			 call	 nextb
   1329	    111E  E9 0B34			 jmp	 enco
   1330	    1121  BA 235Br		 m5e:	 lea	 dx,c00a ;(na)
   1331	    1124  E8 0BD0			 call	 rec5
   1332	    1127  E8 0C15			 call	 nextb
   1333	    112A  E9 0B28			 jmp	 enco
   1334	    112D  BA 1FFAr		 m5f:	 lea	 dx,c5f	 ;clrb
   1335	    1130  E8 0BC4			 call	 rec5
   1336	    1133  E8 0C09			 call	 nextb
   1337	    1136  E9 0B1C			 jmp	 enco
   1338
   1339	    1139  BA 1FFFr		 m60:	 lea	 dx,c60	 ;neg
   1340	    113C  E8 0BB8			 call	 rec5
   1341	    113F  E8 0C48			 call	 p8a
   1342	    1142  E8 0BC7			 call	 xprob
   1343	    1145  E8 0BF7			 call	 nextb
   1344	    1148  E9 0B0A			 jmp	 enco
   1345	    114B  BA 2004r		 m61:	 lea	 dx,c61	 ;---
   1346	    114E  E8 0BA6			 call	 rec5
   1347	    1151  E8 0BEB			 call	 nextb
   1348	    1154  E9 0AFE			 jmp	 enco
   1349	    1157  BA 2009r		 m62:	 lea	 dx,c62	 ;---
   1350	    115A  E8 0B9A			 call	 rec5
   1351	    115D  E8 0BDF			 call	 nextb
   1352	    1160  E9 0AF2			 jmp	 enco
   1353	    1163  BA 200Er		 m63:	 lea	 dx,c63	 ;com
   1354	    1166  E8 0B8E			 call	 rec5
   1355	    1169  E8 0C1E			 call	 p8a
   1356	    116C  E8 0B9D			 call	 xprob
   1357	    116F  E8 0BCD			 call	 nextb
   1358	    1172  E9 0AE0			 jmp	 enco
   1359	    1175  BA 2013r		 m64:	 lea	 dx,c64	 ;lsr
   1360	    1178  E8 0B7C			 call	 rec5
   1361	    117B  E8 0C0C			 call	 p8a
   1362	    117E  E8 0B8B			 call	 xprob
   1363	    1181  E8 0BBB			 call	 nextb
   1364	    1184  E9 0ACE			 jmp	 enco
   1365	    1187  BA 2018r		 m65:	 lea	 dx,c65	 ;---
   1366	    118A  E8 0B6A			 call	 rec5
   1367	    118D  E8 0BAF			 call	 nextb
   1368	    1190  E9 0AC2			 jmp	 enco
Turbo Assembler	 Version 2.0	    05/29/96 02:11:59	    Page 25
dasm_c11.ASM



   1369	    1193  BA 201Dr		 m66:	 lea	 dx,c66	 ;ror
   1370	    1196  E8 0B5E			 call	 rec5
   1371	    1199  E8 0BEE			 call	 p8a
   1372	    119C  E8 0B6D			 call	 xprob
   1373	    119F  E8 0B9D			 call	 nextb
   1374	    11A2  E9 0AB0			 jmp	 enco
   1375	    11A5  BA 2022r		 m67:	 lea	 dx,c67	 ;asr
   1376	    11A8  E8 0B4C			 call	 rec5
   1377	    11AB  E8 0BDC			 call	 p8a
   1378	    11AE  E8 0B5B			 call	 xprob
   1379	    11B1  E8 0B8B			 call	 nextb
   1380	    11B4  E9 0A9E			 jmp	 enco
   1381	    11B7  BA 2027r		 m68:	 lea	 dx,c68	 ;asl
   1382	    11BA  E8 0B3A			 call	 rec5
   1383	    11BD  E8 0BCA			 call	 p8a
   1384	    11C0  E8 0B49			 call	 xprob
   1385	    11C3  E8 0B79			 call	 nextb
   1386	    11C6  E9 0A8C			 jmp	 enco
   1387	    11C9  BA 202Cr		 m69:	 lea	 dx,c69	 ;rol
   1388	    11CC  E8 0B28			 call	 rec5
   1389	    11CF  E8 0BB8			 call	 p8a
   1390	    11D2  E8 0B37			 call	 xprob
   1391	    11D5  E8 0B67			 call	 nextb
   1392	    11D8  E9 0A7A			 jmp	 enco
   1393	    11DB  BA 2031r		 m6a:	 lea	 dx,c6a	 ;dec
   1394	    11DE  E8 0B16			 call	 rec5
   1395	    11E1  E8 0BA6			 call	 p8a
   1396	    11E4  E8 0B25			 call	 xprob
   1397	    11E7  E8 0B55			 call	 nextb
   1398	    11EA  E9 0A68			 jmp	 enco
   1399	    11ED  BA 2036r		 m6b:	 lea	 dx,c6b	 ;---
   1400	    11F0  E8 0B04			 call	 rec5
   1401	    11F3  E8 0B49			 call	 nextb
   1402	    11F6  E9 0A5C			 jmp	 enco
   1403	    11F9  BA 203Br		 m6c:	 lea	 dx,c6c	 ;inc
   1404	    11FC  E8 0AF8			 call	 rec5
   1405	    11FF  E8 0B88			 call	 p8a
   1406	    1202  E8 0B07			 call	 xprob
   1407	    1205  E8 0B37			 call	 nextb
   1408	    1208  E9 0A4A			 jmp	 enco
   1409	    120B  BA 2040r		 m6d:	 lea	 dx,c6d	 ;tst
   1410	    120E  E8 0AE6			 call	 rec5
   1411	    1211  E8 0B76			 call	 p8a
   1412	    1214  E8 0AF5			 call	 xprob
   1413	    1217  E8 0B25			 call	 nextb
   1414	    121A  E9 0A38			 jmp	 enco
   1415	    121D  BA 2045r		 m6e:	 lea	 dx,c6e	 ;jmp
   1416	    1220  E8 0AD4			 call	 rec5
   1417	    1223  E8 0B64			 call	 p8a
   1418	    1226  E8 0AE3			 call	 xprob
   1419	    1229  E8 0B13			 call	 nextb
   1420	    122C  E9 0A26			 jmp	 enco
   1421	    122F  BA 204Ar		 m6f:	 lea	 dx,c6f	 ;clr
   1422	    1232  E8 0AC2			 call	 rec5
   1423	    1235  E8 0B52			 call	 p8a
   1424	    1238  E8 0AD1			 call	 xprob
   1425	    123B  E8 0B01			 call	 nextb
Turbo Assembler	 Version 2.0	    05/29/96 02:11:59	    Page 26
dasm_c11.ASM



   1426	    123E  E9 0A14			 jmp	 enco
   1427
   1428	    1241  BA 204Fr		 m70:	 lea	 dx,c70	 ;neg
   1429	    1244  E8 0AB0			 call	 rec5
   1430	    1247  E8 0B0E			 call	 p16a
   1431	    124A  E8 0AF2			 call	 nextb
   1432	    124D  E9 0A05			 jmp	 enco
   1433	    1250  BA 2054r		 m71:	 lea	 dx,c71	 ;---
   1434	    1253  E8 0AA1			 call	 rec5
   1435	    1256  E8 0AE6			 call	 nextb
   1436	    1259  E9 09F9			 jmp	 enco
   1437	    125C  BA 2059r		 m72:	 lea	 dx,c72	 ;---
   1438	    125F  E8 0A95			 call	 rec5
   1439	    1262  E8 0ADA			 call	 nextb
   1440	    1265  E9 09ED			 jmp	 enco
   1441	    1268  BA 205Er		 m73:	 lea	 dx,c73	 ;com
   1442	    126B  E8 0A89			 call	 rec5
   1443	    126E  E8 0AE7			 call	 p16a
   1444	    1271  E8 0ACB			 call	 nextb
   1445	    1274  E9 09DE			 jmp	 enco
   1446	    1277  BA 2063r		 m74:	 lea	 dx,c74	 ;lsr
   1447	    127A  E8 0A7A			 call	 rec5
   1448	    127D  E8 0AD8			 call	 p16a
   1449	    1280  E8 0ABC			 call	 nextb
   1450	    1283  E9 09CF			 jmp	 enco
   1451	    1286  BA 2068r		 m75:	 lea	 dx,c75	 ;---
   1452	    1289  E8 0A6B			 call	 rec5
   1453	    128C  E8 0AB0			 call	 nextb
   1454	    128F  E9 09C3			 jmp	 enco
   1455	    1292  BA 206Dr		 m76:	 lea	 dx,c76	 ;ror
   1456	    1295  E8 0A5F			 call	 rec5
   1457	    1298  E8 0ABD			 call	 p16a
   1458	    129B  E8 0AA1			 call	 nextb
   1459	    129E  E9 09B4			 jmp	 enco
   1460	    12A1  BA 2072r		 m77:	 lea	 dx,c77	 ;asr
   1461	    12A4  E8 0A50			 call	 rec5
   1462	    12A7  E8 0AAE			 call	 p16a
   1463	    12AA  E8 0A92			 call	 nextb
   1464	    12AD  E9 09A5			 jmp	 enco
   1465	    12B0  BA 2077r		 m78:	 lea	 dx,c78	 ;asl
   1466	    12B3  E8 0A41			 call	 rec5
   1467	    12B6  E8 0A9F			 call	 p16a
   1468	    12B9  E8 0A83			 call	 nextb
   1469	    12BC  E9 0996			 jmp	 enco
   1470	    12BF  BA 207Cr		 m79:	 lea	 dx,c79	 ;rol
   1471	    12C2  E8 0A32			 call	 rec5
   1472	    12C5  E8 0A90			 call	 p16a
   1473	    12C8  E8 0A74			 call	 nextb
   1474	    12CB  E9 0987			 jmp	 enco
   1475	    12CE  BA 2081r		 m7a:	 lea	 dx,c7a	 ;dec
   1476	    12D1  E8 0A23			 call	 rec5
   1477	    12D4  E8 0A81			 call	 p16a
   1478	    12D7  E8 0A65			 call	 nextb
   1479	    12DA  E9 0978			 jmp	 enco
   1480	    12DD  BA 2086r		 m7b:	 lea	 dx,c7b	 ;---
   1481	    12E0  E8 0A14			 call	 rec5
   1482	    12E3  E8 0A59			 call	 nextb
Turbo Assembler	 Version 2.0	    05/29/96 02:11:59	    Page 27
dasm_c11.ASM



   1483	    12E6  E9 096C			 jmp	 enco
   1484	    12E9  BA 208Br		 m7c:	 lea	 dx,c7c	 ;inc
   1485	    12EC  E8 0A08			 call	 rec5
   1486	    12EF  E8 0A66			 call	 p16a
   1487	    12F2  E8 0A4A			 call	 nextb
   1488	    12F5  E9 095D			 jmp	 enco
   1489	    12F8  BA 2090r		 m7d:	 lea	 dx,c7d	 ;tst
   1490	    12FB  E8 09F9			 call	 rec5
   1491	    12FE  E8 0A57			 call	 p16a
   1492	    1301  E8 0A3B			 call	 nextb
   1493	    1304  E9 094E			 jmp	 enco
   1494	    1307  BA 2095r		 m7e:	 lea	 dx,c7e	 ;jmp
   1495	    130A  E8 09EA			 call	 rec5
   1496	    130D  E8 0A48			 call	 p16a
   1497	    1310  E8 0A2C			 call	 nextb
   1498	    1313  E9 093F			 jmp	 enco
   1499	    1316  BA 209Ar		 m7f:	 lea	 dx,c7f	 ;clr
   1500	    1319  E8 09DB			 call	 rec5
   1501	    131C  E8 0A39			 call	 p16a
   1502	    131F  E8 0A1D			 call	 nextb
   1503	    1322  E9 0930			 jmp	 enco
   1504
   1505	    1325  BA 209Fr		 m80:	 lea	 dx,c80	 ;suba
   1506	    1328  E8 09CC			 call	 rec5
   1507	    132B  E8 0A54			 call	 p8d
   1508	    132E  E8 0A0E			 call	 nextb
   1509	    1331  E9 0921			 jmp	 enco
   1510	    1334  BA 20A4r		 m81:	 lea	 dx,c81	 ;cmpa
   1511	    1337  E8 09BD			 call	 rec5
   1512	    133A  E8 0A45			 call	 p8d
   1513	    133D  E8 09FF			 call	 nextb
   1514	    1340  E9 0912			 jmp	 enco
   1515	    1343  BA 20A9r		 m82:	 lea	 dx,c82	 ;sbca
   1516	    1346  E8 09AE			 call	 rec5
   1517	    1349  E8 0A36			 call	 p8d
   1518	    134C  E8 09F0			 call	 nextb
   1519	    134F  E9 0903			 jmp	 enco
   1520	    1352  BA 20AEr		 m83:	 lea	 dx,c83	 ;subd
   1521	    1355  E8 099F			 call	 rec5
   1522	    1358  E8 09F5			 call	 p16d
   1523	    135B  E8 09E1			 call	 nextb
   1524	    135E  E9 08F4			 jmp	 enco
   1525	    1361  BA 20B3r		 m84:	 lea	 dx,c84	 ;anda
   1526	    1364  E8 0990			 call	 rec5
   1527	    1367  E8 0A18			 call	 p8d
   1528	    136A  E8 09D2			 call	 nextb
   1529	    136D  E9 08E5			 jmp	 enco
   1530	    1370  BA 20B8r		 m85:	 lea	 dx,c85	 ;bita
   1531	    1373  E8 0981			 call	 rec5
   1532	    1376  E8 0A09			 call	 p8d
   1533	    1379  E8 09C3			 call	 nextb
   1534	    137C  E9 08D6			 jmp	 enco
   1535	    137F  BA 20BDr		 m86:	 lea	 dx,c86	 ;ldaa
   1536	    1382  E8 0972			 call	 rec5
   1537	    1385  E8 09FA			 call	 p8d
   1538	    1388  E8 09B4			 call	 nextb
   1539	    138B  E9 08C7			 jmp	 enco
Turbo Assembler	 Version 2.0	    05/29/96 02:11:59	    Page 28
dasm_c11.ASM



   1540	    138E  BA 20C2r		 m87:	 lea	 dx,c87	 ;---
   1541	    1391  E8 0963			 call	 rec5
   1542	    1394  E8 09A8			 call	 nextb
   1543	    1397  E9 08BB			 jmp	 enco
   1544	    139A  BA 20C7r		 m88:	 lea	 dx,c88	 ;eora
   1545	    139D  E8 0957			 call	 rec5
   1546	    13A0  E8 09DF			 call	 p8d
   1547	    13A3  E8 0999			 call	 nextb
   1548	    13A6  E9 08AC			 jmp	 enco
   1549	    13A9  BA 20CCr		 m89:	 lea	 dx,c89	 ;adca
   1550	    13AC  E8 0948			 call	 rec5
   1551	    13AF  E8 09D0			 call	 p8d
   1552	    13B2  E8 098A			 call	 nextb
   1553	    13B5  E9 089D			 jmp	 enco
   1554	    13B8  BA 20D1r		 m8a:	 lea	 dx,c8a	 ;oraa
   1555	    13BB  E8 0939			 call	 rec5
   1556	    13BE  E8 09C1			 call	 p8d
   1557	    13C1  E8 097B			 call	 nextb
   1558	    13C4  E9 088E			 jmp	 enco
   1559	    13C7  BA 20D6r		 m8b:	 lea	 dx,c8b	 ;adda
   1560	    13CA  E8 092A			 call	 rec5
   1561	    13CD  E8 09B2			 call	 p8d
   1562	    13D0  E8 096C			 call	 nextb
   1563	    13D3  E9 087F			 jmp	 enco
   1564	    13D6  80 3E	0126r 01	 m8c:	 cmp	 shift2,1
   1565	    13DB  74 11	90 90			 jz	 m8c1
   1566	    13DF  BA 20DBr			 lea	 dx,c8c	 ;cpx(y)
   1567	    13E2  E8 0912			 call	 rec5
   1568	    13E5  E8 0968			 call	 p16d
   1569	    13E8  E8 0954			 call	 nextb
   1570	    13EB  E9 0867			 jmp	 enco
   1571	    13EE  BA 20E0r		 m8c1:	 lea	 dx,c8c1 ;cpy
   1572	    13F1  E8 0903			 call	 rec5
   1573	    13F4  E8 0959			 call	 p16d
   1574	    13F7  E8 0945			 call	 nextb
   1575	    13FA  E9 0858			 jmp	 enco
   1576
   1577	    13FD  BA 20E5r		 m8d:	 lea	 dx,c8d	 ;bsr
   1578	    1400  E8 08F4			 call	 rec5
   1579	    1403  E8 097C			 call	 p8d
   1580	    1406  E8 0936			 call	 nextb
   1581	    1409  E9 0849			 jmp	 enco
   1582	    140C  BA 20EAr		 m8e:	 lea	 dx,c8e	 ;lds
   1583	    140F  E8 08E5			 call	 rec5
   1584	    1412  E8 093B			 call	 p16d
   1585	    1415  E8 0927			 call	 nextb
   1586	    1418  E9 083A			 jmp	 enco
   1587	    141B  80 3E	0126r 01	 m8f:	 cmp	 shift2,1
   1588	    1420  74 0E	90 90			 jz	 m8f1
   1589	    1424  BA 20EFr			 lea	 dx,c8f	 ;xgdx(y)
   1590	    1427  E8 08CD			 call	 rec5
   1591	    142A  E8 0912			 call	 nextb
   1592	    142D  E9 0825			 jmp	 enco
   1593	    1430  BA 20F4r		 m8f1:	 lea	 dx,c8f1 ;xgdy
   1594	    1433  E8 08C1			 call	 rec5
   1595	    1436  E8 0906			 call	 nextb
   1596	    1439  E9 0819			 jmp	 enco
Turbo Assembler	 Version 2.0	    05/29/96 02:11:59	    Page 29
dasm_c11.ASM



   1597
   1598	    143C  BA 20F9r		 m90:	 lea	 dx,c90	 ;suba
   1599	    143F  E8 08B5			 call	 rec5
   1600	    1442  E8 0945			 call	 p8a
   1601	    1445  E8 08F7			 call	 nextb
   1602	    1448  E9 080A			 jmp	 enco
   1603	    144B  BA 20FEr		 m91:	 lea	 dx,c91	 ;cmpa
   1604	    144E  E8 08A6			 call	 rec5
   1605	    1451  E8 0936			 call	 p8a
   1606	    1454  E8 08E8			 call	 nextb
   1607	    1457  E9 07FB			 jmp	 enco
   1608	    145A  BA 2103r		 m92:	 lea	 dx,c92	 ;sbca
   1609	    145D  E8 0897			 call	 rec5
   1610	    1460  E8 0927			 call	 p8a
   1611	    1463  E8 08D9			 call	 nextb
   1612	    1466  E9 07EC			 jmp	 enco
   1613	    1469  BA 2108r		 m93:	 lea	 dx,c93	 ;subd
   1614	    146C  E8 0888			 call	 rec5
   1615	    146F  E8 0918			 call	 p8a
   1616	    1472  E8 08CA			 call	 nextb
   1617	    1475  E9 07DD			 jmp	 enco
   1618	    1478  BA 210Dr		 m94:	 lea	 dx,c94	 ;anda
   1619	    147B  E8 0879			 call	 rec5
   1620	    147E  E8 0909			 call	 p8a
   1621	    1481  E8 08BB			 call	 nextb
   1622	    1484  E9 07CE			 jmp	 enco
   1623	    1487  BA 2112r		 m95:	 lea	 dx,c95	 ;bita
   1624	    148A  E8 086A			 call	 rec5
   1625	    148D  E8 08FA			 call	 p8a
   1626	    1490  E8 08AC			 call	 nextb
   1627	    1493  E9 07BF			 jmp	 enco
   1628	    1496  BA 2117r		 m96:	 lea	 dx,c96	 ;ldaa
   1629	    1499  E8 085B			 call	 rec5
   1630	    149C  E8 08EB			 call	 p8a
   1631	    149F  E8 089D			 call	 nextb
   1632	    14A2  E9 07B0			 jmp	 enco
   1633	    14A5  BA 211Cr		 m97:	 lea	 dx,c97	 ;staa
   1634	    14A8  E8 084C			 call	 rec5
   1635	    14AB  E8 08DC			 call	 p8a
   1636	    14AE  E8 088E			 call	 nextb
   1637	    14B1  E9 07A1			 jmp	 enco
   1638	    14B4  BA 2121r		 m98:	 lea	 dx,c98	 ;eora
   1639	    14B7  E8 083D			 call	 rec5
   1640	    14BA  E8 08CD			 call	 p8a
   1641	    14BD  E8 087F			 call	 nextb
   1642	    14C0  E9 0792			 jmp	 enco
   1643	    14C3  BA 2126r		 m99:	 lea	 dx,c99	 ;adca
   1644	    14C6  E8 082E			 call	 rec5
   1645	    14C9  E8 08BE			 call	 p8a
   1646	    14CC  E8 0870			 call	 nextb
   1647	    14CF  E9 0783			 jmp	 enco
   1648	    14D2  BA 212Br		 m9a:	 lea	 dx,c9a	 ;oraa
   1649	    14D5  E8 081F			 call	 rec5
   1650	    14D8  E8 08AF			 call	 p8a
   1651	    14DB  E8 0861			 call	 nextb
   1652	    14DE  E9 0774			 jmp	 enco
   1653	    14E1  BA 2130r		 m9b:	 lea	 dx,c9b	 ;adda
Turbo Assembler	 Version 2.0	    05/29/96 02:11:59	    Page 30
dasm_c11.ASM



   1654	    14E4  E8 0810			 call	 rec5
   1655	    14E7  E8 08A0			 call	 p8a
   1656	    14EA  E8 0852			 call	 nextb
   1657	    14ED  E9 0765			 jmp	 enco
   1658	    14F0  80 3E	0126r 01	 m9c:	 cmp	 shift2,1
   1659	    14F5  74 11	90 90			 jz	 m9c1
   1660	    14F9  BA 2135r			 lea	 dx,c9c	 ;cpx(y)
   1661	    14FC  E8 07F8			 call	 rec5
   1662	    14FF  E8 0888			 call	 p8a
   1663	    1502  E8 083A			 call	 nextb
   1664	    1505  E9 074D			 jmp	 enco
   1665	    1508  BA 213Ar		 m9c1:	 lea	 dx,c9c1 ;cpy
   1666	    150B  E8 07E9			 call	 rec5
   1667	    150E  E8 0879			 call	 p8a
   1668	    1511  E8 082B			 call	 nextb
   1669	    1514  E9 073E			 jmp	 enco
   1670
   1671	    1517  BA 213Fr		 m9d:	 lea	 dx,c9d	 ;jsr
   1672	    151A  E8 07DA			 call	 rec5
   1673	    151D  E8 086A			 call	 p8a
   1674	    1520  E8 081C			 call	 nextb
   1675	    1523  E9 072F			 jmp	 enco
   1676	    1526  BA 2144r		 m9e:	 lea	 dx,c9e	 ;lds
   1677	    1529  E8 07CB			 call	 rec5
   1678	    152C  E8 085B			 call	 p8a
   1679	    152F  E8 080D			 call	 nextb
   1680	    1532  E9 0720			 jmp	 enco
   1681	    1535  BA 2149r		 m9f:	 lea	 dx,c9f	 ;sts
   1682	    1538  E8 07BC			 call	 rec5
   1683	    153B  E8 084C			 call	 p8a
   1684	    153E  E8 07FE			 call	 nextb
   1685	    1541  E9 0711			 jmp	 enco
   1686
   1687	    1544  BA 214Er		 ma0:	 lea	 dx,ca0	 ;suba
   1688	    1547  E8 07AD			 call	 rec5
   1689	    154A  E8 083D			 call	 p8a
   1690	    154D  E8 07BC			 call	 xprob
   1691	    1550  E8 07EC			 call	 nextb
   1692	    1553  E9 06FF			 jmp	 enco
   1693	    1556  BA 2153r		 ma1:	 lea	 dx,ca1	 ;cmpa
   1694	    1559  E8 079B			 call	 rec5
   1695	    155C  E8 082B			 call	 p8a
   1696	    155F  E8 07AA			 call	 xprob
   1697	    1562  E8 07DA			 call	 nextb
   1698	    1565  E9 06ED			 jmp	 enco
   1699	    1568  BA 2158r		 ma2:	 lea	 dx,ca2	 ;sbca
   1700	    156B  E8 0789			 call	 rec5
   1701	    156E  E8 0819			 call	 p8a
   1702	    1571  E8 0798			 call	 xprob
   1703	    1574  E8 07C8			 call	 nextb
   1704	    1577  E9 06DB			 jmp	 enco
   1705	    157A  BA 215Dr		 ma3:	 lea	 dx,ca3	 ;subd
   1706	    157D  E8 0777			 call	 rec5
   1707	    1580  E8 0807			 call	 p8a
   1708	    1583  E8 0786			 call	 xprob
   1709	    1586  E8 07B6			 call	 nextb
   1710	    1589  E9 06C9			 jmp	 enco
Turbo Assembler	 Version 2.0	    05/29/96 02:11:59	    Page 31
dasm_c11.ASM



   1711	    158C  BA 2162r		 ma4:	 lea	 dx,ca4	 ;anda
   1712	    158F  E8 0765			 call	 rec5
   1713	    1592  E8 07F5			 call	 p8a
   1714	    1595  E8 0774			 call	 xprob
   1715	    1598  E8 07A4			 call	 nextb
   1716	    159B  E9 06B7			 jmp	 enco
   1717	    159E  BA 2167r		 ma5:	 lea	 dx,ca5	 ;bita
   1718	    15A1  E8 0753			 call	 rec5
   1719	    15A4  E8 07E3			 call	 p8a
   1720	    15A7  E8 0762			 call	 xprob
   1721	    15AA  E8 0792			 call	 nextb
   1722	    15AD  E9 06A5			 jmp	 enco
   1723	    15B0  BA 216Cr		 ma6:	 lea	 dx,ca6	 ;ldaa
   1724	    15B3  E8 0741			 call	 rec5
   1725	    15B6  E8 07D1			 call	 p8a
   1726	    15B9  E8 0750			 call	 xprob
   1727	    15BC  E8 0780			 call	 nextb
   1728	    15BF  E9 0693			 jmp	 enco
   1729	    15C2  BA 216Cr		 ma7:	 lea	 dx,ca6	 ;staa
   1730	    15C5  E8 072F			 call	 rec5
   1731	    15C8  E8 07BF			 call	 p8a
   1732	    15CB  E8 073E			 call	 xprob
   1733	    15CE  E8 076E			 call	 nextb
   1734	    15D1  E9 0681			 jmp	 enco
   1735	    15D4  BA 2176r		 ma8:	 lea	 dx,ca8	 ;eora
   1736	    15D7  E8 071D			 call	 rec5
   1737	    15DA  E8 07AD			 call	 p8a
   1738	    15DD  E8 072C			 call	 xprob
   1739	    15E0  E8 075C			 call	 nextb
   1740	    15E3  E9 066F			 jmp	 enco
   1741	    15E6  BA 217Br		 ma9:	 lea	 dx,ca9	 ;adca
   1742	    15E9  E8 070B			 call	 rec5
   1743	    15EC  E8 079B			 call	 p8a
   1744	    15EF  E8 071A			 call	 xprob
   1745	    15F2  E8 074A			 call	 nextb
   1746	    15F5  E9 065D			 jmp	 enco
   1747	    15F8  BA 2180r		 maa:	 lea	 dx,caa	 ;oraa
   1748	    15FB  E8 06F9			 call	 rec5
   1749	    15FE  E8 0789			 call	 p8a
   1750	    1601  E8 0708			 call	 xprob
   1751	    1604  E8 0738			 call	 nextb
   1752	    1607  E9 064B			 jmp	 enco
   1753	    160A  BA 2185r		 mab:	 lea	 dx,cab	 ;adda
   1754	    160D  E8 06E7			 call	 rec5
   1755	    1610  E8 0777			 call	 p8a
   1756	    1613  E8 06F6			 call	 xprob
   1757	    1616  E8 0726			 call	 nextb
   1758	    1619  E9 0639			 jmp	 enco
   1759	    161C  80 3E	0126r 01	 mac:	 cmp	 shift2,1
   1760	    1621  74 14	90 90			 jz	 mac1
   1761	    1625  BA 218Ar			 lea	 dx,cac	 ;cpx(y)
   1762	    1628  E8 06CC			 call	 rec5
   1763	    162B  E8 075C			 call	 p8a
   1764	    162E  E8 06DB			 call	 xprob
   1765	    1631  E8 070B			 call	 nextb
   1766	    1634  E9 061E			 jmp	 enco
   1767	    1637  BA 218Fr		 mac1:	 lea	 dx,cac1 ;cpy
Turbo Assembler	 Version 2.0	    05/29/96 02:11:59	    Page 32
dasm_c11.ASM



   1768	    163A  E8 06BA			 call	 rec5
   1769	    163D  E8 074A			 call	 p8a
   1770	    1640  E8 06C9			 call	 xprob
   1771	    1643  E8 06F9			 call	 nextb
   1772	    1646  E9 060C			 jmp	 enco
   1773
   1774	    1649  BA 2194r		 mad:	 lea	 dx,cad	 ;jsr
   1775	    164C  E8 06A8			 call	 rec5
   1776	    164F  E8 0738			 call	 p8a
   1777	    1652  E8 06B7			 call	 xprob
   1778	    1655  E8 06E7			 call	 nextb
   1779	    1658  E9 05FA			 jmp	 enco
   1780	    165B  BA 2199r		 mae:	 lea	 dx,cae	 ;lds
   1781	    165E  E8 0696			 call	 rec5
   1782	    1661  E8 0726			 call	 p8a
   1783	    1664  E8 06A5			 call	 xprob
   1784	    1667  E8 06D5			 call	 nextb
   1785	    166A  E9 05E8			 jmp	 enco
   1786	    166D  BA 219Er		 maf:	 lea	 dx,caf	 ;sts
   1787	    1670  E8 0684			 call	 rec5
   1788	    1673  E8 0714			 call	 p8a
   1789	    1676  E8 0693			 call	 xprob
   1790	    1679  E8 06C3			 call	 nextb
   1791	    167C  E9 05D6			 jmp	 enco
   1792
   1793	    167F  BA 21A3r		 mb0:	 lea	 dx,cb0	 ;suba
   1794	    1682  E8 0672			 call	 rec5
   1795	    1685  E8 06D0			 call	 p16a
   1796	    1688  E8 06B4			 call	 nextb
   1797	    168B  E9 05C7			 jmp	 enco
   1798	    168E  BA 21A8r		 mb1:	 lea	 dx,cb1	 ;cmpa
   1799	    1691  E8 0663			 call	 rec5
   1800	    1694  E8 06C1			 call	 p16a
   1801	    1697  E8 06A5			 call	 nextb
   1802	    169A  E9 05B8			 jmp	 enco
   1803	    169D  BA 21ADr		 mb2:	 lea	 dx,cb2	 ;sbca
   1804	    16A0  E8 0654			 call	 rec5
   1805	    16A3  E8 06B2			 call	 p16a
   1806	    16A6  E8 0696			 call	 nextb
   1807	    16A9  E9 05A9			 jmp	 enco
   1808	    16AC  BA 21B2r		 mb3:	 lea	 dx,cb3	 ;subd
   1809	    16AF  E8 0645			 call	 rec5
   1810	    16B2  E8 06A3			 call	 p16a
   1811	    16B5  E8 0687			 call	 nextb
   1812	    16B8  E9 059A			 jmp	 enco
   1813	    16BB  BA 21B7r		 mb4:	 lea	 dx,cb4	 ;anda
   1814	    16BE  E8 0636			 call	 rec5
   1815	    16C1  E8 0694			 call	 p16a
   1816	    16C4  E8 0678			 call	 nextb
   1817	    16C7  E9 058B			 jmp	 enco
   1818	    16CA  BA 21BCr		 mb5:	 lea	 dx,cb5	 ;bita
   1819	    16CD  E8 0627			 call	 rec5
   1820	    16D0  E8 0685			 call	 p16a
   1821	    16D3  E8 0669			 call	 nextb
   1822	    16D6  E9 057C			 jmp	 enco
   1823	    16D9  BA 21C1r		 mb6:	 lea	 dx,cb6	 ;ldaa
   1824	    16DC  E8 0618			 call	 rec5
Turbo Assembler	 Version 2.0	    05/29/96 02:11:59	    Page 33
dasm_c11.ASM



   1825	    16DF  E8 0676			 call	 p16a
   1826	    16E2  E8 065A			 call	 nextb
   1827	    16E5  E9 056D			 jmp	 enco
   1828	    16E8  BA 21C1r		 mb7:	 lea	 dx,cb6	 ;staa
   1829	    16EB  E8 0609			 call	 rec5
   1830	    16EE  E8 0667			 call	 p16a
   1831	    16F1  E8 064B			 call	 nextb
   1832	    16F4  E9 055E			 jmp	 enco
   1833	    16F7  BA 21CBr		 mb8:	 lea	 dx,cb8	 ;eora
   1834	    16FA  E8 05FA			 call	 rec5
   1835	    16FD  E8 0658			 call	 p16a
   1836	    1700  E8 063C			 call	 nextb
   1837	    1703  E9 054F			 jmp	 enco
   1838	    1706  BA 21D0r		 mb9:	 lea	 dx,cb9	 ;adca
   1839	    1709  E8 05EB			 call	 rec5
   1840	    170C  E8 0649			 call	 p16a
   1841	    170F  E8 062D			 call	 nextb
   1842	    1712  E9 0540			 jmp	 enco
   1843	    1715  BA 21D5r		 mba:	 lea	 dx,cba	 ;oraa
   1844	    1718  E8 05DC			 call	 rec5
   1845	    171B  E8 063A			 call	 p16a
   1846	    171E  E8 061E			 call	 nextb
   1847	    1721  E9 0531			 jmp	 enco
   1848	    1724  BA 21DAr		 mbb:	 lea	 dx,cbb	 ;adda
   1849	    1727  E8 05CD			 call	 rec5
   1850	    172A  E8 062B			 call	 p16a
   1851	    172D  E8 060F			 call	 nextb
   1852	    1730  E9 0522			 jmp	 enco
   1853	    1733  80 3E	0126r 01	 mbc:	 cmp	 shift2,1
   1854	    1738  74 11	90 90			 jz	 mbc1
   1855	    173C  BA 21DFr			 lea	 dx,cbc	 ;cpx(y)
   1856	    173F  E8 05B5			 call	 rec5
   1857	    1742  E8 0613			 call	 p16a
   1858	    1745  E8 05F7			 call	 nextb
   1859	    1748  E9 050A			 jmp	 enco
   1860	    174B  BA 21E4r		 mbc1:	 lea	 dx,cbc1 ;cpy
   1861	    174E  E8 05A6			 call	 rec5
   1862	    1751  E8 0604			 call	 p16a
   1863	    1754  E8 05E8			 call	 nextb
   1864	    1757  E9 04FB			 jmp	 enco
   1865
   1866	    175A  BA 21E9r		 mbd:	 lea	 dx,cbd	 ;jsr
   1867	    175D  E8 0597			 call	 rec5
   1868	    1760  E8 05F5			 call	 p16a
   1869	    1763  E8 05D9			 call	 nextb
   1870	    1766  E9 04EC			 jmp	 enco
   1871	    1769  BA 21EEr		 mbe:	 lea	 dx,cbe	 ;lds
   1872	    176C  E8 0588			 call	 rec5
   1873	    176F  E8 05E6			 call	 p16a
   1874	    1772  E8 05CA			 call	 nextb
   1875	    1775  E9 04DD			 jmp	 enco
   1876	    1778  BA 21F3r		 mbf:	 lea	 dx,cbf	 ;sts
   1877	    177B  E8 0579			 call	 rec5
   1878	    177E  E8 05D7			 call	 p16a
   1879	    1781  E8 05BB			 call	 nextb
   1880	    1784  E9 04CE			 jmp	 enco
   1881
Turbo Assembler	 Version 2.0	    05/29/96 02:11:59	    Page 34
dasm_c11.ASM



   1882	    1787  BA 21F8r		 mc0:	 lea	 dx,cc0	 ;subb
   1883	    178A  E8 056A			 call	 rec5
   1884	    178D  E8 05F2			 call	 p8d
   1885	    1790  E8 05AC			 call	 nextb
   1886	    1793  E9 04BF			 jmp	 enco
   1887	    1796  BA 21FDr		 mc1:	 lea	 dx,cc1	 ;cmpb
   1888	    1799  E8 055B			 call	 rec5
   1889	    179C  E8 05E3			 call	 p8d
   1890	    179F  E8 059D			 call	 nextb
   1891	    17A2  E9 04B0			 jmp	 enco
   1892	    17A5  BA 2202r		 mc2:	 lea	 dx,cc2	 ;sbcb
   1893	    17A8  E8 054C			 call	 rec5
   1894	    17AB  E8 05D4			 call	 p8d
   1895	    17AE  E8 058E			 call	 nextb
   1896	    17B1  E9 04A1			 jmp	 enco
   1897	    17B4  BA 2207r		 mc3:	 lea	 dx,cc3	 ;addd
   1898	    17B7  E8 053D			 call	 rec5
   1899	    17BA  E8 0593			 call	 p16d
   1900	    17BD  E8 057F			 call	 nextb
   1901	    17C0  E9 0492			 jmp	 enco
   1902	    17C3  BA 220Cr		 mc4:	 lea	 dx,cc4	 ;andb
   1903	    17C6  E8 052E			 call	 rec5
   1904	    17C9  E8 05B6			 call	 p8d
   1905	    17CC  E8 0570			 call	 nextb
   1906	    17CF  E9 0483			 jmp	 enco
   1907	    17D2  BA 2211r		 mc5:	 lea	 dx,cc5	 ;bitb
   1908	    17D5  E8 051F			 call	 rec5
   1909	    17D8  E8 05A7			 call	 p8d
   1910	    17DB  E8 0561			 call	 nextb
   1911	    17DE  E9 0474			 jmp	 enco
   1912	    17E1  BA 2216r		 mc6:	 lea	 dx,cc6	 ;ldbb
   1913	    17E4  E8 0510			 call	 rec5
   1914	    17E7  E8 0598			 call	 p8d
   1915	    17EA  E8 0552			 call	 nextb
   1916	    17ED  E9 0465			 jmp	 enco
   1917	    17F0  BA 221Br		 mc7:	 lea	 dx,cc7	 ;---
   1918	    17F3  E8 0501			 call	 rec5
   1919	    17F6  E8 0546			 call	 nextb
   1920	    17F9  E9 0459			 jmp	 enco
   1921	    17FC  BA 2220r		 mc8:	 lea	 dx,cc8	 ;eorb
   1922	    17FF  E8 04F5			 call	 rec5
   1923	    1802  E8 057D			 call	 p8d
   1924	    1805  E8 0537			 call	 nextb
   1925	    1808  E9 044A			 jmp	 enco
   1926	    180B  BA 2225r		 mc9:	 lea	 dx,cc9	 ;adcb
   1927	    180E  E8 04E6			 call	 rec5
   1928	    1811  E8 056E			 call	 p8d
   1929	    1814  E8 0528			 call	 nextb
   1930	    1817  E9 043B			 jmp	 enco
   1931	    181A  BA 222Ar		 mca:	 lea	 dx,cca	 ;orab
   1932	    181D  E8 04D7			 call	 rec5
   1933	    1820  E8 055F			 call	 p8d
   1934	    1823  E8 0519			 call	 nextb
   1935	    1826  E9 042C			 jmp	 enco
   1936	    1829  BA 222Fr		 mcb:	 lea	 dx,ccb	 ;addb
   1937	    182C  E8 04C8			 call	 rec5
   1938	    182F  E8 0550			 call	 p8d
Turbo Assembler	 Version 2.0	    05/29/96 02:11:59	    Page 35
dasm_c11.ASM



   1939	    1832  E8 050A			 call	 nextb
   1940	    1835  E9 041D			 jmp	 enco
   1941	    1838  BA 2234r		 mcc:	 lea	 dx,ccc	 ;ldd
   1942	    183B  E8 04B9			 call	 rec5
   1943	    183E  E8 050F			 call	 p16d
   1944	    1841  E8 04FB			 call	 nextb
   1945	    1844  E9 040E			 jmp	 enco
   1946	    1847  BA 2239r		 mcd:	 lea	 dx,ccd	 ;				 ---------paje 4
   1947	    184A  E8 04AA			 call	 rec5
   1948	    184D  E8 0532			 call	 p8d
   1949	    1850  E8 04EC			 call	 nextb
   1950	    1853  E9 043F			 jmp	 paje4
   1951	    1856  80 3E	0126r 01	 mce:	 cmp	 shift2,1
   1952	    185B  74 11	90 90			 jz	 mce1
   1953	    185F  BA 223Er			 lea	 dx,cce	 ;ldx(y)
   1954	    1862  E8 0492			 call	 rec5
   1955	    1865  E8 04E8			 call	 p16d
   1956	    1868  E8 04D4			 call	 nextb
   1957	    186B  E9 03E7			 jmp	 enco
   1958	    186E  BA 2243r		 mce1:	 lea	 dx,cce1 ;ldy
   1959	    1871  E8 0483			 call	 rec5
   1960	    1874  E8 04D9			 call	 p16d
   1961	    1877  E8 04C5			 call	 nextb
   1962	    187A  E9 03D8			 jmp	 enco
   1963
   1964	    187D  BA 2248r		 mcf:	 lea	 dx,ccf	 ;stop
   1965	    1880  E8 0474			 call	 rec5
   1966	    1883  E8 04B9			 call	 nextb
   1967	    1886  E9 03CC			 jmp	 enco
   1968
   1969	    1889  BA 224Dr		 md0:	 lea	 dx,cd0	 ;subb
   1970	    188C  E8 0468			 call	 rec5
   1971	    188F  E8 04F8			 call	 p8a
   1972	    1892  E8 04AA			 call	 nextb
   1973	    1895  E9 03BD			 jmp	 enco
   1974	    1898  BA 2252r		 md1:	 lea	 dx,cd1	 ;cmpb
   1975	    189B  E8 0459			 call	 rec5
   1976	    189E  E8 04E9			 call	 p8a
   1977	    18A1  E8 049B			 call	 nextb
   1978	    18A4  E9 03AE			 jmp	 enco
   1979	    18A7  BA 2257r		 md2:	 lea	 dx,cd2	 ;sbcb
   1980	    18AA  E8 044A			 call	 rec5
   1981	    18AD  E8 04DA			 call	 p8a
   1982	    18B0  E8 048C			 call	 nextb
   1983	    18B3  E9 039F			 jmp	 enco
   1984	    18B6  BA 225Cr		 md3:	 lea	 dx,cd3	 ;addd
   1985	    18B9  E8 043B			 call	 rec5
   1986	    18BC  E8 04CB			 call	 p8a
   1987	    18BF  E8 047D			 call	 nextb
   1988	    18C2  E9 0390			 jmp	 enco
   1989	    18C5  BA 2261r		 md4:	 lea	 dx,cd4	 ;andb
   1990	    18C8  E8 042C			 call	 rec5
   1991	    18CB  E8 04BC			 call	 p8a
   1992	    18CE  E8 046E			 call	 nextb
   1993	    18D1  E9 0381			 jmp	 enco
   1994	    18D4  BA 2266r		 md5:	 lea	 dx,cd5	 ;bitb
   1995	    18D7  E8 041D			 call	 rec5
Turbo Assembler	 Version 2.0	    05/29/96 02:11:59	    Page 36
dasm_c11.ASM



   1996	    18DA  E8 04AD			 call	 p8a
   1997	    18DD  E8 045F			 call	 nextb
   1998	    18E0  E9 0372			 jmp	 enco
   1999	    18E3  BA 226Br		 md6:	 lea	 dx,cd6	 ;ldbb
   2000	    18E6  E8 040E			 call	 rec5
   2001	    18E9  E8 049E			 call	 p8a
   2002	    18EC  E8 0450			 call	 nextb
   2003	    18EF  E9 0363			 jmp	 enco
   2004	    18F2  BA 2270r		 md7:	 lea	 dx,cd7	 ;stbb
   2005	    18F5  E8 03FF			 call	 rec5
   2006	    18F8  E8 048F			 call	 p8a
   2007	    18FB  E8 0441			 call	 nextb
   2008	    18FE  E9 0354			 jmp	 enco
   2009	    1901  BA 2275r		 md8:	 lea	 dx,cd8	 ;eorb
   2010	    1904  E8 03F0			 call	 rec5
   2011	    1907  E8 0480			 call	 p8a
   2012	    190A  E8 0432			 call	 nextb
   2013	    190D  E9 0345			 jmp	 enco
   2014	    1910  BA 227Ar		 md9:	 lea	 dx,cd9	 ;adcb
   2015	    1913  E8 03E1			 call	 rec5
   2016	    1916  E8 0471			 call	 p8a
   2017	    1919  E8 0423			 call	 nextb
   2018	    191C  E9 0336			 jmp	 enco
   2019	    191F  BA 227Fr		 mda:	 lea	 dx,cda	 ;orab
   2020	    1922  E8 03D2			 call	 rec5
   2021	    1925  E8 0462			 call	 p8a
   2022	    1928  E8 0414			 call	 nextb
   2023	    192B  E9 0327			 jmp	 enco
   2024	    192E  BA 2284r		 mdb:	 lea	 dx,cdb	 ;addb
   2025	    1931  E8 03C3			 call	 rec5
   2026	    1934  E8 0453			 call	 p8a
   2027	    1937  E8 0405			 call	 nextb
   2028	    193A  E9 0318			 jmp	 enco
   2029	    193D  BA 2289r		 mdc:	 lea	 dx,cdc	 ;ldd
   2030	    1940  E8 03B4			 call	 rec5
   2031	    1943  E8 0444			 call	 p8a
   2032	    1946  E8 03F6			 call	 nextb
   2033	    1949  E9 0309			 jmp	 enco
   2034	    194C  BA 228Er		 mdd:	 lea	 dx,cdd	 ;std
   2035	    194F  E8 03A5			 call	 rec5
   2036	    1952  E8 0435			 call	 p8a
   2037	    1955  E8 03E7			 call	 nextb
   2038	    1958  E9 02FA			 jmp	 enco
   2039	    195B  80 3E	0126r 01	 mde:	 cmp	 shift2,1
   2040	    1960  74 11	90 90			 jz	 mde1
   2041	    1964  BA 2293r			 lea	 dx,cde	 ;ldx(y)
   2042	    1967  E8 038D			 call	 rec5
   2043	    196A  E8 041D			 call	 p8a
   2044	    196D  E8 03CF			 call	 nextb
   2045	    1970  E9 02E2			 jmp	 enco
   2046	    1973  BA 2298r		 mde1:	 lea	 dx,cde1 ;ldy
   2047	    1976  E8 037E			 call	 rec5
   2048	    1979  E8 040E			 call	 p8a
   2049	    197C  E8 03C0			 call	 nextb
   2050	    197F  E9 02D3			 jmp	 enco
   2051	    1982  80 3E	0126r 01	 mdf:	 cmp	 shift2,1
   2052	    1987  74 11	90 90			 jz	 mdf1
Turbo Assembler	 Version 2.0	    05/29/96 02:11:59	    Page 37
dasm_c11.ASM



   2053	    198B  BA 229Dr			 lea	 dx,cdf	 ;stx(y)
   2054	    198E  E8 0366			 call	 rec5
   2055	    1991  E8 03F6			 call	 p8a
   2056	    1994  E8 03A8			 call	 nextb
   2057	    1997  E9 02BB			 jmp	 enco
   2058	    199A  BA 22A2r		 mdf1:	 lea	 dx,cdf1 ;sty
   2059	    199D  E8 0357			 call	 rec5
   2060	    19A0  E8 03E7			 call	 p8a
   2061	    19A3  E8 0399			 call	 nextb
   2062	    19A6  E9 02AC			 jmp	 enco
   2063
   2064	    19A9  BA 22A7r		 me0:	 lea	 dx,ce0	 ;subb
   2065	    19AC  E8 0348			 call	 rec5
   2066	    19AF  E8 03D8			 call	 p8a
   2067	    19B2  E8 0357			 call	 xprob
   2068	    19B5  E8 0387			 call	 nextb
   2069	    19B8  E9 029A			 jmp	 enco
   2070	    19BB  BA 22ACr		 me1:	 lea	 dx,ce1	 ;cmpb
   2071	    19BE  E8 0336			 call	 rec5
   2072	    19C1  E8 03C6			 call	 p8a
   2073	    19C4  E8 0345			 call	 xprob
   2074	    19C7  E8 0375			 call	 nextb
   2075	    19CA  E9 0288			 jmp	 enco
   2076	    19CD  BA 22B1r		 me2:	 lea	 dx,ce2	 ;sbcb
   2077	    19D0  E8 0324			 call	 rec5
   2078	    19D3  E8 03B4			 call	 p8a
   2079	    19D6  E8 0333			 call	 xprob
   2080	    19D9  E8 0363			 call	 nextb
   2081	    19DC  E9 0276			 jmp	 enco
   2082	    19DF  BA 22B6r		 me3:	 lea	 dx,ce3	 ;addd
   2083	    19E2  E8 0312			 call	 rec5
   2084	    19E5  E8 03A2			 call	 p8a
   2085	    19E8  E8 0321			 call	 xprob
   2086	    19EB  E8 0351			 call	 nextb
   2087	    19EE  E9 0264			 jmp	 enco
   2088	    19F1  BA 22BBr		 me4:	 lea	 dx,ce4	 ;andb
   2089	    19F4  E8 0300			 call	 rec5
   2090	    19F7  E8 0390			 call	 p8a
   2091	    19FA  E8 030F			 call	 xprob
   2092	    19FD  E8 033F			 call	 nextb
   2093	    1A00  E9 0252			 jmp	 enco
   2094	    1A03  BA 22C0r		 me5:	 lea	 dx,ce5	 ;bitb
   2095	    1A06  E8 02EE			 call	 rec5
   2096	    1A09  E8 037E			 call	 p8a
   2097	    1A0C  E8 02FD			 call	 xprob
   2098	    1A0F  E8 032D			 call	 nextb
   2099	    1A12  E9 0240			 jmp	 enco
   2100	    1A15  BA 22C5r		 me6:	 lea	 dx,ce6	 ;ldbb
   2101	    1A18  E8 02DC			 call	 rec5
   2102	    1A1B  E8 036C			 call	 p8a
   2103	    1A1E  E8 02EB			 call	 xprob
   2104	    1A21  E8 031B			 call	 nextb
   2105	    1A24  E9 022E			 jmp	 enco
   2106	    1A27  BA 22CAr		 me7:	 lea	 dx,ce7	 ;stbb
   2107	    1A2A  E8 02CA			 call	 rec5
   2108	    1A2D  E8 035A			 call	 p8a
   2109	    1A30  E8 02D9			 call	 xprob
Turbo Assembler	 Version 2.0	    05/29/96 02:11:59	    Page 38
dasm_c11.ASM



   2110	    1A33  E8 0309			 call	 nextb
   2111	    1A36  E9 021C			 jmp	 enco
   2112	    1A39  BA 22CFr		 me8:	 lea	 dx,ce8	 ;eorb
   2113	    1A3C  E8 02B8			 call	 rec5
   2114	    1A3F  E8 0348			 call	 p8a
   2115	    1A42  E8 02C7			 call	 xprob
   2116	    1A45  E8 02F7			 call	 nextb
   2117	    1A48  E9 020A			 jmp	 enco
   2118	    1A4B  BA 22D4r		 me9:	 lea	 dx,ce9	 ;adcb
   2119	    1A4E  E8 02A6			 call	 rec5
   2120	    1A51  E8 0336			 call	 p8a
   2121	    1A54  E8 02B5			 call	 xprob
   2122	    1A57  E8 02E5			 call	 nextb
   2123	    1A5A  E9 01F8			 jmp	 enco
   2124	    1A5D  BA 22D9r		 mea:	 lea	 dx,cea	 ;orab
   2125	    1A60  E8 0294			 call	 rec5
   2126	    1A63  E8 0324			 call	 p8a
   2127	    1A66  E8 02A3			 call	 xprob
   2128	    1A69  E8 02D3			 call	 nextb
   2129	    1A6C  E9 01E6			 jmp	 enco
   2130	    1A6F  BA 22DEr		 meb:	 lea	 dx,ceb	 ;addb
   2131	    1A72  E8 0282			 call	 rec5
   2132	    1A75  E8 0312			 call	 p8a
   2133	    1A78  E8 0291			 call	 xprob
   2134	    1A7B  E8 02C1			 call	 nextb
   2135	    1A7E  E9 01D4			 jmp	 enco
   2136	    1A81  BA 22E3r		 mec:	 lea	 dx,cec	 ;ldd
   2137	    1A84  E8 0270			 call	 rec5
   2138	    1A87  E8 0300			 call	 p8a
   2139	    1A8A  E8 027F			 call	 xprob
   2140	    1A8D  E8 02AF			 call	 nextb
   2141	    1A90  E9 01C2			 jmp	 enco
   2142	    1A93  BA 22E8r		 med:	 lea	 dx,ced	 ;std
   2143	    1A96  E8 025E			 call	 rec5
   2144	    1A99  E8 02EE			 call	 p8a
   2145	    1A9C  E8 026D			 call	 xprob
   2146	    1A9F  E8 029D			 call	 nextb
   2147	    1AA2  E9 01B0			 jmp	 enco
   2148	    1AA5  80 3E	0126r 01	 mee:	 cmp	 shift2,1
   2149	    1AAA  74 14	90 90			 jz	 mee1
   2150	    1AAE  BA 22EDr			 lea	 dx,cee	 ;ldx(y)
   2151	    1AB1  E8 0243			 call	 rec5
   2152	    1AB4  E8 02D3			 call	 p8a
   2153	    1AB7  E8 0252			 call	 xprob
   2154	    1ABA  E8 0282			 call	 nextb
   2155	    1ABD  E9 0195			 jmp	 enco
   2156	    1AC0  BA 22F2r		 mee1:	 lea	 dx,cee1 ;ldy
   2157	    1AC3  E8 0231			 call	 rec5
   2158	    1AC6  E8 02C1			 call	 p8a
   2159	    1AC9  E8 0240			 call	 xprob
   2160	    1ACC  E8 0270			 call	 nextb
   2161	    1ACF  E9 0183			 jmp	 enco
   2162	    1AD2  80 3E	0126r 01	 mef:	 cmp	 shift2,1
   2163	    1AD7  74 14	90 90			 jz	 mef1
   2164	    1ADB  BA 22F7r			 lea	 dx,cef	 ;stx(y)
   2165	    1ADE  E8 0216			 call	 rec5
   2166	    1AE1  E8 02A6			 call	 p8a
Turbo Assembler	 Version 2.0	    05/29/96 02:11:59	    Page 39
dasm_c11.ASM



   2167	    1AE4  E8 0225			 call	 xprob
   2168	    1AE7  E8 0255			 call	 nextb
   2169	    1AEA  E9 0168			 jmp	 enco
   2170	    1AED  BA 22FCr		 mef1:	 lea	 dx,cef1 ;sty
   2171	    1AF0  E8 0204			 call	 rec5
   2172	    1AF3  E8 0294			 call	 p8a
   2173	    1AF6  E8 0213			 call	 xprob
   2174	    1AF9  E8 0243			 call	 nextb
   2175	    1AFC  E9 0156			 jmp	 enco
   2176
   2177	    1AFF  BA 2301r		 mf0:	 lea	 dx,cf0	 ;subb
   2178	    1B02  E8 01F2			 call	 rec5
   2179	    1B05  E8 0282			 call	 p8a
   2180	    1B08  E8 0201			 call	 xprob
   2181	    1B0B  E8 0231			 call	 nextb
   2182	    1B0E  E9 0144			 jmp	 enco
   2183	    1B11  BA 2306r		 mf1:	 lea	 dx,cf1	 ;cmpb
   2184	    1B14  E8 01E0			 call	 rec5
   2185	    1B17  E8 0270			 call	 p8a
   2186	    1B1A  E8 01EF			 call	 xprob
   2187	    1B1D  E8 021F			 call	 nextb
   2188	    1B20  E9 0132			 jmp	 enco
   2189	    1B23  BA 230Br		 mf2:	 lea	 dx,cf2	 ;sbcb
   2190	    1B26  E8 01CE			 call	 rec5
   2191	    1B29  E8 025E			 call	 p8a
   2192	    1B2C  E8 01DD			 call	 xprob
   2193	    1B2F  E8 020D			 call	 nextb
   2194	    1B32  E9 0120			 jmp	 enco
   2195	    1B35  BA 2310r		 mf3:	 lea	 dx,cf3	 ;addd
   2196	    1B38  E8 01BC			 call	 rec5
   2197	    1B3B  E8 024C			 call	 p8a
   2198	    1B3E  E8 01CB			 call	 xprob
   2199	    1B41  E8 01FB			 call	 nextb
   2200	    1B44  E9 010E			 jmp	 enco
   2201	    1B47  BA 2315r		 mf4:	 lea	 dx,cf4	 ;andb
   2202	    1B4A  E8 01AA			 call	 rec5
   2203	    1B4D  E8 023A			 call	 p8a
   2204	    1B50  E8 01B9			 call	 xprob
   2205	    1B53  E8 01E9			 call	 nextb
   2206	    1B56  E9 00FC			 jmp	 enco
   2207	    1B59  BA 231Ar		 mf5:	 lea	 dx,cf5	 ;bitb
   2208	    1B5C  E8 0198			 call	 rec5
   2209	    1B5F  E8 0228			 call	 p8a
   2210	    1B62  E8 01A7			 call	 xprob
   2211	    1B65  E8 01D7			 call	 nextb
   2212	    1B68  E9 00EA			 jmp	 enco
   2213	    1B6B  BA 231Fr		 mf6:	 lea	 dx,cf6	 ;ldbb
   2214	    1B6E  E8 0186			 call	 rec5
   2215	    1B71  E8 0216			 call	 p8a
   2216	    1B74  E8 0195			 call	 xprob
   2217	    1B77  E8 01C5			 call	 nextb
   2218	    1B7A  E9 00D8			 jmp	 enco
   2219	    1B7D  BA 2324r		 mf7:	 lea	 dx,cf7	 ;stbb
   2220	    1B80  E8 0174			 call	 rec5
   2221	    1B83  E8 0204			 call	 p8a
   2222	    1B86  E8 0183			 call	 xprob
   2223	    1B89  E8 01B3			 call	 nextb
Turbo Assembler	 Version 2.0	    05/29/96 02:11:59	    Page 40
dasm_c11.ASM



   2224	    1B8C  E9 00C6			 jmp	 enco
   2225	    1B8F  BA 2329r		 mf8:	 lea	 dx,cf8	 ;eorb
   2226	    1B92  E8 0162			 call	 rec5
   2227	    1B95  E8 01F2			 call	 p8a
   2228	    1B98  E8 0171			 call	 xprob
   2229	    1B9B  E8 01A1			 call	 nextb
   2230	    1B9E  E9 00B4			 jmp	 enco
   2231	    1BA1  BA 232Er		 mf9:	 lea	 dx,cf9	 ;adcb
   2232	    1BA4  E8 0150			 call	 rec5
   2233	    1BA7  E8 01E0			 call	 p8a
   2234	    1BAA  E8 015F			 call	 xprob
   2235	    1BAD  E8 018F			 call	 nextb
   2236	    1BB0  E9 00A2			 jmp	 enco
   2237	    1BB3  BA 2333r		 mfa:	 lea	 dx,cfa	 ;orab
   2238	    1BB6  E8 013E			 call	 rec5
   2239	    1BB9  E8 01CE			 call	 p8a
   2240	    1BBC  E8 014D			 call	 xprob
   2241	    1BBF  E8 017D			 call	 nextb
   2242	    1BC2  E9 0090			 jmp	 enco
   2243	    1BC5  BA 2338r		 mfb:	 lea	 dx,cfb	 ;addb
   2244	    1BC8  E8 012C			 call	 rec5
   2245	    1BCB  E8 01BC			 call	 p8a
   2246	    1BCE  E8 013B			 call	 xprob
   2247	    1BD1  E8 016B			 call	 nextb
   2248	    1BD4  EB 7F	90			 jmp	 enco
   2249	    1BD7  BA 233Dr		 mfc:	 lea	 dx,cfc	 ;ldd
   2250	    1BDA  E8 011A			 call	 rec5
   2251	    1BDD  E8 01AA			 call	 p8a
   2252	    1BE0  E8 0129			 call	 xprob
   2253	    1BE3  E8 0159			 call	 nextb
   2254	    1BE6  EB 6D	90			 jmp	 enco
   2255	    1BE9  BA 2342r		 mfd:	 lea	 dx,cfd	 ;std
   2256	    1BEC  E8 0108			 call	 rec5
   2257	    1BEF  E8 0198			 call	 p8a
   2258	    1BF2  E8 0117			 call	 xprob
   2259	    1BF5  E8 0147			 call	 nextb
   2260	    1BF8  EB 5B	90			 jmp	 enco
   2261	    1BFB  80 3E	0126r 01	 mfe:	 cmp	 shift2,1
   2262	    1C00  74 14	90 90			 jz	 mfe1
   2263	    1C04  BA 2347r			 lea	 dx,cfe	 ;ldx(y)
   2264	    1C07  E8 00ED			 call	 rec5
   2265	    1C0A  E8 017D			 call	 p8a
   2266	    1C0D  E8 00FC			 call	 xprob
   2267	    1C10  E8 012C			 call	 nextb
   2268	    1C13  EB 40	90			 jmp	 enco
   2269	    1C16  BA 234Cr		 mfe1:	 lea	 dx,cfe1 ;ldy
   2270	    1C19  E8 00DB			 call	 rec5
   2271	    1C1C  E8 016B			 call	 p8a
   2272	    1C1F  E8 00EA			 call	 xprob
   2273	    1C22  E8 011A			 call	 nextb
   2274	    1C25  EB 2E	90			 jmp	 enco
   2275	    1C28  80 3E	0126r 01	 mff:	 cmp	 shift2,1
   2276	    1C2D  74 14	90 90			 jz	 mff1
   2277	    1C31  BA 2351r			 lea	 dx,cff	 ;stx(y)
   2278	    1C34  E8 00C0			 call	 rec5
   2279	    1C37  E8 0150			 call	 p8a
   2280	    1C3A  E8 00CF			 call	 xprob
Turbo Assembler	 Version 2.0	    05/29/96 02:11:59	    Page 41
dasm_c11.ASM



   2281	    1C3D  E8 00FF			 call	 nextb
   2282	    1C40  EB 13	90			 jmp	 enco
   2283	    1C43  BA 2356r		 mff1:	 lea	 dx,cff1 ;sty
   2284	    1C46  E8 00AE			 call	 rec5
   2285	    1C49  E8 013E			 call	 p8a
   2286	    1C4C  E8 00BD			 call	 xprob
   2287	    1C4F  E8 00ED			 call	 nextb
   2288	    1C52  EB 01	90			 jmp	 enco
   2289					 ;%
   2290	    1C55  FF 06	0123r		 enco:	 inc	 adr16
   2291	    1C59  C6 06	0125r 00		 mov	 shift1,0
   2292	    1C5E  C6 06	0126r 00		 mov	 shift2,0
   2293	    1C63  83 3E	0123r 10		 cmp	 adr16,10h
   2294	    1C68  74 05	90 90			 jz	 end_f_
   2295	    1C6C  E9 E52B			 jmp	 cont_1
   2296	    1C6F  E9 E517		 end_f_: jmp	 end_f
   2297
   2298	    1C72  E8 004D		 paje2:	 call	 read		 ;cod 18
   2299	    1C75  FF 06	0123r			 inc	 adr16
   2300	    1C79  C6 06	0125r 01		 mov	 shift1,1	 ;IND,Y
   2301	    1C7E  C6 06	0126r 01		 mov	 shift2,1	 ;CMP(Y)
   2302	    1C83  E9 E541			 jmp	 a0
   2303
   2304	    1C86  E8 0039		 paje3:	 call	 read		 ;cod 1A
   2305	    1C89  FF 06	0123r			 inc	 adr16
   2306	    1C8D  C6 06	0126r 01		 mov	 shift2,1	 ;CMP(Y)
   2307	    1C92  E9 E532			 jmp	 a0
   2308
   2309	    1C95  E8 002A		 paje4:	 call	 read		 ;cod CD
   2310	    1C98  FF 06	0123r			 inc	 adr16
   2311	    1C9C  C6 06	0125r 01		 mov	 shift1,1	 ;IND,Y
   2312	    1CA1  E9 E523			 jmp	 a0
   2313
   2314					 ;		 *** close file	***
   2315					 ;		 ------------------
   2316
   2317	    1CA4  B4 3E			 close:	 mov	 ah,3eh
   2318	    1CA6  8B 1E	0110r			 mov	 bx,handle
   2319	    1CAA  CD 21				 int	 21h
   2320	    1CAC  B4 3E				 mov	 ah,3eh
   2321	    1CAE  8B 1E	0112r			 mov	 bx,handle1
   2322	    1CB2  CD 21				 int	 21h
   2323	    1CB4  C3				 ret
   2324
   2325
   2326					 ;		 *** open file ***
   2327					 ;		 -----------------
   2328
   2329	    1CB5  B4 3D			 open:	 mov	 ah,3dh
   2330	    1CB7  B0 00				 mov	 al,0
   2331	    1CB9  BA 0082r			 lea	 dx,fname
   2332	    1CBC  CD 21				 int	 21h
   2333	    1CBE  A3 0110r			 mov	 handle,ax
   2334	    1CC1  C3				 ret
   2335
   2336					 ;		 *** read file ***
   2337					 ;		 -----------------
Turbo Assembler	 Version 2.0	    05/29/96 02:11:59	    Page 42
dasm_c11.ASM



   2338
   2339	    1CC2  B4 3F			 read:	 mov	 ah,3fh
   2340	    1CC4  8B 1E	0110r			 mov	 bx,handle
   2341	    1CC8  B9 0001			 mov	 cx,1
   2342	    1CCB  BA 0117r			 lea	 dx,dta
   2343	    1CCE  CD 21				 int	 21h
   2344	    1CD0  72 05	90 90			 jc	 read_e
   2345	    1CD4  B4 00				 mov	 ah,0
   2346	    1CD6  C3				 ret
   2347	    1CD7  B4 01			 read_e: mov	 ah,1
   2348	    1CD9  C3				 ret
   2349
   2350					 ;		 *** created file ***
   2351					 ;		 --------------------
   2352
   2353	    1CDA  B4 3C			 crefi:	 mov	 ah,3ch
   2354	    1CDC  B9 0000			 mov	 cx,00
   2355	    1CDF  BA 0103r			 lea	 dx,fname1
   2356	    1CE2  CD 21				 int	 21h
   2357	    1CE4  A3 0112r			 mov	 handle1,ax
   2358	    1CE7  C3				 ret
   2359
   2360					 ;		 *** rec file ***
   2361					 ;		 ----------------
   2362
   2363	    1CE8  B4 40			 rec:	 mov	 ah,40h
   2364	    1CEA  8B 1E	0112r			 mov	 bx,handle1
   2365	    1CEE  B9 0001			 mov	 cx,1
   2366	    1CF1  BA 0146r			 lea	 dx,orec
   2367	    1CF4  CD 21				 int	 21h
   2368	    1CF6  C3				 ret
   2369
   2370					 ;		 *** rec file 5	bytes ***
   2371					 ;		 ------------------------
   2372	    1CF7  B4 40				 rec5:	 mov	 ah,40h
   2373	    1CF9  8B 1E	0112r			 mov	 bx,handle1
   2374	    1CFD  B9 0005			 mov	 cx,5
   2375					 ;	 lea	 dx,orec
   2376	    1D00  CD 21				 int	 21h
   2377	    1D02  C3				 ret
   2378
   2379	    1D03  C6 06	0146r 20	 prob:	 mov	 orec,'	'
   2380	    1D08  E8 FFDD			 call	 rec
   2381	    1D0B  C3				 ret
   2382
   2383	    1D0C  C6 06	0146r 2C	 xprob:	 mov	 orec,','
   2384	    1D11  E8 FFD4			 call	 rec
   2385	    1D14  80 3E	0125r 01		 cmp	 shift1,1
   2386	    1D19  74 13	90 90			 jz	 x_prob
   2387	    1D1D  C6 06	0146r 58		 mov	 orec,'X'
   2388	    1D22  E8 FFC3			 call	 rec
   2389	    1D25  C6 06	0146r 20		 mov	 orec,'	'
   2390	    1D2A  E8 FFBB			 call	 rec
   2391	    1D2D  C3				 ret
   2392	    1D2E  C6 06	0146r 59	 x_prob: mov	 orec,'Y'
   2393	    1D33  E8 FFB2			 call	 rec
   2394	    1D36  C6 06	0146r 20		 mov	 orec,'	'
Turbo Assembler	 Version 2.0	    05/29/96 02:11:59	    Page 43
dasm_c11.ASM



   2395	    1D3B  E8 FFAA			 call	 rec
   2396	    1D3E  C3				 ret
   2397
   2398	    1D3F  C6 06	0146r 0A	 nextb:	 mov	 orec,0ah
   2399	    1D44  E8 FFA1			 call	 rec
   2400	    1D47  C6 06	0146r 0D		 mov	 orec,0dh
   2401	    1D4C  E8 FF99			 call	 rec
   2402	    1D4F  C3				 ret
   2403
   2404	    1D50  C6 06	0146r 23	 p16d:	 mov	 orec,23h	 ;#
   2405	    1D55  E8 FF90			 call	 rec
   2406	    1D58  C6 06	0146r 24	 p16a:	 mov	 orec,24h	 ;$
   2407	    1D5D  E8 FF88			 call	 rec
   2408	    1D60  E8 FF5F			 call	 read
   2409	    1D63  FF 06	0123r			 inc	 adr16
   2410	    1D67  A0 0117r			 mov	 al,dta
   2411	    1D6A  A2 0122r			 mov	 val8,al
   2412	    1D6D  E8 FF52			 call	 read
   2413	    1D70  FF 06	0123r			 inc	 adr16
   2414	    1D74  8A 26	0122r			 mov	 ah,val8
   2415	    1D78  A0 0117r			 mov	 al,dta
   2416	    1D7B  A3 0120r			 mov	 val16,ax
   2417	    1D7E  E8 003B			 call	 prn16
   2418	    1D81  C3				 ret
   2419
   2420	    1D82  C6 06	0146r 23	 p8d:	 mov	 orec,23h	 ;#
   2421	    1D87  E8 FF5E			 call	 rec
   2422	    1D8A  C6 06	0146r 24	 p8a:	 mov	 orec,24h	 ;$
   2423	    1D8F  E8 FF56			 call	 rec
   2424	    1D92  E8 FF2D			 call	 read
   2425	    1D95  FF 06	0123r			 inc	 adr16
   2426	    1D99  A0 0117r			 mov	 al,dta
   2427	    1D9C  A2 0122r			 mov	 val8,al
   2428	    1D9F  E8 003C			 call	 prn8
   2429	    1DA2  C3				 ret
   2430
   2431	    1DA3  C6 06	0146r 12	 p8s:	 mov	 orec,12h	 ;
   2432	    1DA8  E8 FF3D			 call	 rec
   2433	    1DAB  E8 FF14			 call	 read
   2434	    1DAE  FF 06	0123r			 inc	 adr16
   2435	    1DB2  A0 0117r			 mov	 al,dta
   2436	    1DB5  A2 0122r			 mov	 val8,al
   2437	    1DB8  E8 0023			 call	 prn8
   2438	    1DBB  C3				 ret
   2439
   2440
   2441					 ;-------------------------------
   2442	    1DBC  A1 0120r		 prn16:	 mov	 ax,val16
   2443	    1DBF  C1 E8	0C			 shr	 ax,12
   2444	    1DC2  E8 0029			 call	 meta_
   2445	    1DC5  A1 0120r			 mov	 ax,val16
   2446	    1DC8  C1 E8	08			 shr	 ax,8
   2447	    1DCB  E8 0020			 call	 meta_
   2448	    1DCE  A1 0120r			 mov	 ax,val16	 ;save 16 bit value
   2449	    1DD1  C1 E8	04			 shr	 ax,4
   2450	    1DD4  E8 0017			 call	 meta_
   2451	    1DD7  A1 0120r			 mov	 ax,val16
Turbo Assembler	 Version 2.0	    05/29/96 02:11:59	    Page 44
dasm_c11.ASM



   2452	    1DDA  E8 0011			 call	 meta_
   2453	    1DDD  C3				 ret
   2454
   2455	    1DDE  A0 0122r		 prn8:	 mov	 al,val8	 ;save 8 bit value
   2456	    1DE1  C0 E8	04			 shr	 al,4
   2457	    1DE4  E8 0007			 call	 meta_
   2458	    1DE7  A0 0122r			 mov	 al,val8
   2459	    1DEA  E8 0001			 call	 meta_
   2460	    1DED  C3				 ret
   2461
   2462	    1DEE  24 0F			 meta_:	 and	 al,0fh
   2463	    1DF0  3C 09				 cmp	 al,9
   2464	    1DF2  7E 04	90 90			 jle	 digit_
   2465	    1DF6  04 07				 add	 al,7
   2466	    1DF8  04 30			 digit_: add	 al,30h
   2467	    1DFA  A2 0146r			 mov	 orec,al
   2468	    1DFD  E8 FEE8			 call	 rec
   2469	    1E00  C3				 ret
   2470
   2471
   2472	    1E01  54 45	53 54 20	 c00	 db	 'TEST '
   2473	    1E06  4E 4F	50 20 20	 c01	 db	 'NOP  '
   2474	    1E0B  49 44	49 56 20	 c02	 db	 'IDIV '
   2475	    1E10  46 44	49 56 20	 c03	 db	 'FDIV '
   2476	    1E15  4C 53	52 44 20	 c04	 db	 'LSRD '
   2477	    1E1A  41 53	4C 44 20	 c05	 db	 'ASLD '
   2478	    1E1F  54 41	50 20 20	 c06	 db	 'TAP  '
   2479	    1E24  54 50	41 20 20	 c07	 db	 'TPA  '
   2480	    1E29  49 4E	58 20 20	 c08	 db	 'INX  '
   2481	    1E2E  49 4E	59 20 20	 c081	 db	 'INY  '
   2482	    1E33  44 45	58 20 20	 c09	 db	 'DEX  '
   2483	    1E38  43 4C	56 20 20	 c0A	 db	 'CLV  '
   2484	    1E3D  53 45	56 20 20	 c0B	 db	 'SEV  '
   2485	    1E42  43 4C	43 20 20	 c0C	 db	 'CLC  '
   2486	    1E47  53 45	43 20 20	 c0D	 db	 'SEC  '
   2487	    1E4C  43 4C	49 20 20	 c0E	 db	 'CLI  '
   2488	    1E51  53 45	49 20 20	 c0F	 db	 'SEI  '
   2489	    1E56  53 42	41 20 20	 c10	 db	 'SBA  '
   2490	    1E5B  43 42	41 20 20	 c11	 db	 'CBA  '
   2491	    1E60  42 52	53 45 54	 c12	 db	 'BRSET'
   2492	    1E65  42 52	43 4C 52	 c13	 db	 'BRCLR'
   2493	    1E6A  42 53	45 54 20	 c14	 db	 'BSET '
   2494	    1E6F  42 43	4C 52 20	 c15	 db	 'BCLR '
   2495	    1E74  54 41	42 20 20	 c16	 db	 'TAB  '
   2496	    1E79  54 42	41 20 20	 c17	 db	 'TBA  '
   2497	    1E7E  50 20	32 20 20	 c18	 db	 'P 2  '
   2498	    1E83  44 41	41 20 20	 c19	 db	 'DAA  '
   2499	    1E88  50 20	33 20 20	 c1a	 db	 'P 3  '
   2500	    1E8D  41 42	41 20 20	 c1b	 db	 'ABA  '
   2501	    1E92  42 53	45 54 20	 c1c	 db	 'BSET '
   2502	    1E97  42 43	4C 52 20	 c1d	 db	 'BCLR '
   2503	    1E9C  42 52	53 45 54	 c1e	 db	 'BRSET'
   2504	    1EA1  42 52	43 4C 52	 c1f	 db	 'BRCLR'
   2505	    1EA6  42 52	41 20 20	 c20	 db	 'BRA  '
   2506	    1EAB  42 52	4E 20 20	 c21	 db	 'BRN  '
   2507	    1EB0  42 48	49 20 20	 c22	 db	 'BHI  '
   2508	    1EB5  42 4C	53 20 20	 c23	 db	 'BLS  '
Turbo Assembler	 Version 2.0	    05/29/96 02:11:59	    Page 45
dasm_c11.ASM



   2509	    1EBA  42 43	43 20 20	 c24	 db	 'BCC  '
   2510	    1EBF  42 43	53 20 20	 c25	 db	 'BCS  '
   2511	    1EC4  42 4E	45 20 20	 c26	 db	 'BNE  '
   2512	    1EC9  42 45	51 20 20	 c27	 db	 'BEQ  '
   2513	    1ECE  42 56	43 20 20	 c28	 db	 'BVC  '
   2514	    1ED3  42 56	53 20 20	 c29	 db	 'BVS  '
   2515	    1ED8  42 50	4C 20 20	 c2a	 db	 'BPL  '
   2516	    1EDD  42 4D	49 20 20	 c2b	 db	 'BMI  '
   2517	    1EE2  42 47	45 20 20	 c2c	 db	 'BGE  '
   2518	    1EE7  42 4C	54 20 20	 c2d	 db	 'BLT  '
   2519	    1EEC  42 47	54 20 20	 c2e	 db	 'BGT  '
   2520	    1EF1  42 4C	45 20 20	 c2f	 db	 'BLE  '
   2521	    1EF6  54 53	58 20 20	 c30	 db	 'TSX  '
   2522	    1EFB  54 53	59 20 20	 c301	 db	 'TSY  '
   2523	    1F00  49 4E	53 20 20	 c31	 db	 'INS  '
   2524	    1F05  50 55	4C 41 20	 c32	 db	 'PULA '
   2525	    1F0A  50 55	4C 42 20	 c33	 db	 'PULB '
   2526	    1F0F  44 45	53 20 20	 c34	 db	 'DES  '
   2527	    1F14  54 58	53 20 20	 c35	 db	 'TXS  '
   2528	    1F19  54 59	53 20 20	 c351	 db	 'TYS  '
   2529	    1F1E  50 53	48 41 20	 c36	 db	 'PSHA '
   2530	    1F23  50 53	48 42 20	 c37	 db	 'PSHB '
   2531	    1F28  50 55	4C 58 20	 c38	 db	 'PULX '
   2532	    1F2D  50 55	4C 59 20	 c381	 db	 'PULY '
   2533	    1F32  52 54	53 20 20	 c39	 db	 'RTS  '
   2534	    1F37  41 42	58 20 20	 c3a	 db	 'ABX  '
   2535	    1F3C  41 42	59 20 20	 c3a1	 db	 'ABY  '
   2536	    1F41  52 54	49 20 20	 c3b	 db	 'RTI  '
   2537	    1F46  50 53	48 58 20	 c3c	 db	 'PSHX '
   2538	    1F4B  50 53	48 59 20	 c3c1	 db	 'PSHY '
   2539	    1F50  4D 55	4C 20 20	 c3d	 db	 'MUL  '
   2540	    1F55  57 41	49 20 20	 c3e	 db	 'WAI  '
   2541	    1F5A  53 57	49 20 20	 c3f	 db	 'SWI  '
   2542	    1F5F  4E 45	47 41 20	 c40	 db	 'NEGA '
   2543	    1F64  2D 2D	2D 2D 2D	 c41	 db	 '-----'
   2544	    1F69  2D 2D	2D 2D 2D	 c42	 db	 '-----'
   2545	    1F6E  43 4F	4D 41 20	 c43	 db	 'COMA '
   2546	    1F73  4C 53	52 41 20	 c44	 db	 'LSRA '
   2547	    1F78  2D 2D	2D 2D 2D	 c45	 db	 '-----'
   2548	    1F7D  52 4F	52 41 20	 c46	 db	 'RORA '
   2549	    1F82  41 53	52 41 20	 c47	 db	 'ASRA '
   2550	    1F87  41 53	4C 41 20	 c48	 db	 'ASLA '
   2551	    1F8C  52 4F	4C 41 20	 c49	 db	 'ROLA '
   2552	    1F91  44 45	43 41 20	 c4a	 db	 'DECA '
   2553	    1F96  2D 2D	2D 2D 2D	 c4b	 db	 '-----'
   2554	    1F9B  49 4E	43 41 20	 c4c	 db	 'INCA '
   2555	    1FA0  54 53	54 41 20	 c4d	 db	 'TSTA '
   2556	    1FA5  2D 2D	2D 2D 2D	 c4e	 db	 '-----'
   2557	    1FAA  43 4C	52 41 20	 c4f	 db	 'CLRA '
   2558	    1FAF  4E 45	47 42 20	 c50	 db	 'NEGB '
   2559	    1FB4  2D 2D	2D 2D 2D	 c51	 db	 '-----'
   2560	    1FB9  2D 2D	2D 2D 2D	 c52	 db	 '-----'
   2561	    1FBE  43 4F	4D 42 20	 c53	 db	 'COMB '
   2562	    1FC3  4C 53	52 42 20	 c54	 db	 'LSRB '
   2563	    1FC8  2D 2D	2D 2D 2D	 c55	 db	 '-----'
   2564	    1FCD  52 4F	52 42 20	 c56	 db	 'RORB '
   2565	    1FD2  41 53	52 42 20	 c57	 db	 'ASRB '
Turbo Assembler	 Version 2.0	    05/29/96 02:11:59	    Page 46
dasm_c11.ASM



   2566	    1FD7  41 53	4C 42 20	 c58	 db	 'ASLB '
   2567	    1FDC  52 4F	4C 42 20	 c59	 db	 'ROLB '
   2568	    1FE1  44 45	43 42 20	 c5a	 db	 'DECB '
   2569	    1FE6  2D 2D	2D 2D 2D	 c5b	 db	 '-----'
   2570	    1FEB  49 4E	43 42 20	 c5c	 db	 'INCB '
   2571	    1FF0  54 53	54 42 20	 c5d	 db	 'TSTB '
   2572	    1FF5  2D 2D	2D 2D 2D	 c5e	 db	 '-----'
   2573	    1FFA  43 4C	52 42 20	 c5f	 db	 'CLRB '
   2574
   2575	    1FFF  4E 45	47 20 20	 c60	 db	 'NEG  '
   2576	    2004  2D 2D	2D 2D 2D	 c61	 db	 '-----'
   2577	    2009  2D 2D	2D 2D 2D	 c62	 db	 '-----'
   2578	    200E  43 4F	4D 20 20	 c63	 db	 'COM  '
   2579	    2013  4C 53	52 20 20	 c64	 db	 'LSR  '
   2580	    2018  2D 2D	2D 2D 2D	 c65	 db	 '-----'
   2581	    201D  52 4F	52 20 20	 c66	 db	 'ROR  '
   2582	    2022  41 53	52 20 20	 c67	 db	 'ASR  '
   2583	    2027  41 53	4C 20 20	 c68	 db	 'ASL  '
   2584	    202C  52 4F	4C 20 20	 c69	 db	 'ROL  '
   2585	    2031  44 45	43 20 20	 c6a	 db	 'DEC  '
   2586	    2036  2D 2D	2D 2D 2D	 c6b	 db	 '-----'
   2587	    203B  49 4E	43 20 20	 c6c	 db	 'INC  '
   2588	    2040  54 53	54 20 20	 c6d	 db	 'TST  '
   2589	    2045  4A 4D	50 20 20	 c6e	 db	 'JMP  '
   2590	    204A  43 4C	52 20 20	 c6f	 db	 'CLR  '
   2591
   2592	    204F  4E 45	47 20 20	 c70	 db	 'NEG  '
   2593	    2054  2D 2D	2D 2D 2D	 c71	 db	 '-----'
   2594	    2059  2D 2D	2D 2D 2D	 c72	 db	 '-----'
   2595	    205E  43 4F	4D 20 20	 c73	 db	 'COM  '
   2596	    2063  4C 53	52 20 20	 c74	 db	 'LSR  '
   2597	    2068  2D 2D	2D 2D 2D	 c75	 db	 '-----'
   2598	    206D  52 4F	52 20 20	 c76	 db	 'ROR  '
   2599	    2072  41 53	52 20 20	 c77	 db	 'ASR  '
   2600	    2077  41 53	4C 20 20	 c78	 db	 'ASL  '
   2601	    207C  52 4F	4C 20 20	 c79	 db	 'ROL  '
   2602	    2081  44 45	43 20 20	 c7a	 db	 'DEC  '
   2603	    2086  2D 2D	2D 2D 2D	 c7b	 db	 '-----'
   2604	    208B  49 4E	43 20 20	 c7c	 db	 'INC  '
   2605	    2090  54 53	54 20 20	 c7d	 db	 'TST  '
   2606	    2095  4A 4D	50 20 20	 c7e	 db	 'JMP  '
   2607	    209A  43 4C	52 20 20	 c7f	 db	 'CLR  '
   2608
   2609	    209F  53 55	42 41 20	 c80	 db	 'SUBA '
   2610	    20A4  43 4D	50 41 20	 c81	 db	 'CMPA '
   2611	    20A9  53 42	43 41 20	 c82	 db	 'SBCA '
   2612	    20AE  53 55	42 44 20	 c83	 db	 'SUBD '
   2613	    20B3  41 4E	44 41 20	 c84	 db	 'ANDA '
   2614	    20B8  42 49	54 41 20	 c85	 db	 'BITA '
   2615	    20BD  4C 44	41 41 20	 c86	 db	 'LDAA '
   2616	    20C2  2D 2D	2D 2D 2D	 c87	 db	 '-----'
   2617	    20C7  45 4F	52 41 20	 c88	 db	 'EORA '
   2618	    20CC  41 44	43 41 20	 c89	 db	 'ADCA '
   2619	    20D1  4F 52	41 41 20	 c8a	 db	 'ORAA '
   2620	    20D6  41 44	44 41 20	 c8b	 db	 'ADDA '
   2621	    20DB  43 50	58 20 20	 c8c	 db	 'CPX  '
   2622	    20E0  43 50	59 20 20	 c8c1	 db	 'CPY  '
Turbo Assembler	 Version 2.0	    05/29/96 02:11:59	    Page 47
dasm_c11.ASM



   2623	    20E5  42 53	52 20 20	 c8d	 db	 'BSR  '
   2624	    20EA  4C 44	53 20 20	 c8e	 db	 'LDS  '
   2625	    20EF  58 47	44 58 20	 c8f	 db	 'XGDX '
   2626	    20F4  58 47	44 59 20	 c8f1	 db	 'XGDY '
   2627
   2628	    20F9  53 55	42 41 20	 c90	 db	 'SUBA '
   2629	    20FE  43 4D	50 41 20	 c91	 db	 'CMPA '
   2630	    2103  53 42	43 41 20	 c92	 db	 'SBCA '
   2631	    2108  53 55	42 44 20	 c93	 db	 'SUBD '
   2632	    210D  41 4E	44 41 20	 c94	 db	 'ANDA '
   2633	    2112  42 49	54 41 20	 c95	 db	 'BITA '
   2634	    2117  4C 44	41 41 20	 c96	 db	 'LDAA '
   2635	    211C  53 54	41 41 20	 c97	 db	 'STAA '
   2636	    2121  45 4F	52 41 20	 c98	 db	 'EORA '
   2637	    2126  41 44	43 41 20	 c99	 db	 'ADCA '
   2638	    212B  4F 52	41 41 20	 c9a	 db	 'ORAA '
   2639	    2130  41 44	44 41 20	 c9b	 db	 'ADDA '
   2640	    2135  43 50	58 20 20	 c9c	 db	 'CPX  '
   2641	    213A  43 50	59 20 20	 c9c1	 db	 'CPY  '
   2642	    213F  4A 53	52 20 20	 c9d	 db	 'JSR  '
   2643	    2144  4C 44	53 20 20	 c9e	 db	 'LDS  '
   2644	    2149  53 54	53 20 20	 c9f	 db	 'STS  '
   2645
   2646	    214E  53 55	42 41 20	 ca0	 db	 'SUBA '
   2647	    2153  43 4D	50 41 20	 ca1	 db	 'CMPA '
   2648	    2158  53 42	43 41 20	 ca2	 db	 'SBCA '
   2649	    215D  53 55	42 44 20	 ca3	 db	 'SUBD '
   2650	    2162  41 4E	44 41 20	 ca4	 db	 'ANDA '
   2651	    2167  42 49	54 41 20	 ca5	 db	 'BITA '
   2652	    216C  4C 44	41 41 20	 ca6	 db	 'LDAA '
   2653	    2171  53 54	41 41 20	 ca7	 db	 'STAA '
   2654	    2176  45 4F	52 41 20	 ca8	 db	 'EORA '
   2655	    217B  41 44	43 41 20	 ca9	 db	 'ADCA '
   2656	    2180  4F 52	41 41 20	 caa	 db	 'ORAA '
   2657	    2185  41 44	44 41 20	 cab	 db	 'ADDA '
   2658	    218A  43 50	58 20 20	 cac	 db	 'CPX  '
   2659	    218F  43 50	59 20 20	 cac1	 db	 'CPY  '
   2660	    2194  4A 53	52 20 20	 cad	 db	 'JSR  '
   2661	    2199  4C 44	53 20 20	 cae	 db	 'LDS  '
   2662	    219E  53 54	53 20 20	 caf	 db	 'STS  '
   2663
   2664	    21A3  53 55	42 41 20	 cb0	 db	 'SUBA '
   2665	    21A8  43 4D	50 41 20	 cb1	 db	 'CMPA '
   2666	    21AD  53 42	43 41 20	 cb2	 db	 'SBCA '
   2667	    21B2  53 55	42 44 20	 cb3	 db	 'SUBD '
   2668	    21B7  41 4E	44 41 20	 cb4	 db	 'ANDA '
   2669	    21BC  42 49	54 41 20	 cb5	 db	 'BITA '
   2670	    21C1  4C 44	41 41 20	 cb6	 db	 'LDAA '
   2671	    21C6  53 54	41 41 20	 cb7	 db	 'STAA '
   2672	    21CB  45 4F	52 41 20	 cb8	 db	 'EORA '
   2673	    21D0  41 44	43 41 20	 cb9	 db	 'ADCA '
   2674	    21D5  4F 52	41 41 20	 cba	 db	 'ORAA '
   2675	    21DA  41 44	44 41 20	 cbb	 db	 'ADDA '
   2676	    21DF  43 50	58 20 20	 cbc	 db	 'CPX  '
   2677	    21E4  43 50	59 20 20	 cbc1	 db	 'CPY  '
   2678	    21E9  4A 53	52 20 20	 cbd	 db	 'JSR  '
   2679	    21EE  4C 44	53 20 20	 cbe	 db	 'LDS  '
Turbo Assembler	 Version 2.0	    05/29/96 02:11:59	    Page 48
dasm_c11.ASM



   2680	    21F3  53 54	53 20 20	 cbf	 db	 'STS  '
   2681
   2682	    21F8  53 55	42 42 20	 cc0	 db	 'SUBB '
   2683	    21FD  43 4D	50 42 20	 cc1	 db	 'CMPB '
   2684	    2202  53 42	43 42 20	 cc2	 db	 'SBCB '
   2685	    2207  41 44	44 44 20	 cc3	 db	 'ADDD '
   2686	    220C  41 4E	44 42 20	 cc4	 db	 'ANDB '
   2687	    2211  42 49	54 42 20	 cc5	 db	 'BITB '
   2688	    2216  4C 44	41 42 20	 cc6	 db	 'LDAB '
   2689	    221B  2D 2D	2D 2D 2D	 cc7	 db	 '-----'
   2690	    2220  45 4F	52 42 20	 cc8	 db	 'EORB '
   2691	    2225  41 44	43 42 20	 cc9	 db	 'ADCB '
   2692	    222A  4F 52	41 42 20	 cca	 db	 'ORAB '
   2693	    222F  41 44	44 42 20	 ccb	 db	 'ADDB '
   2694	    2234  4C 44	44 20 20	 ccc	 db	 'LDD  '
   2695	    2239  50 20	34 20 20	 ccd	 db	 'P 4  '
   2696	    223E  4C 44	58 20 20	 cce	 db	 'LDX  '
   2697	    2243  4C 44	59 20 20	 cce1	 db	 'LDY  '
   2698	    2248  53 54	4F 50 20	 ccf	 db	 'STOP '
   2699
   2700	    224D  53 55	42 42 20	 cd0	 db	 'SUBB '
   2701	    2252  43 4D	50 42 20	 cd1	 db	 'CMPB '
   2702	    2257  53 42	43 42 20	 cd2	 db	 'SBCB '
   2703	    225C  41 44	44 44 20	 cd3	 db	 'ADDD '
   2704	    2261  41 4E	44 42 20	 cd4	 db	 'ANDB '
   2705	    2266  42 49	54 42 20	 cd5	 db	 'BITB '
   2706	    226B  4C 44	41 42 20	 cd6	 db	 'LDAB '
   2707	    2270  53 54	41 42 20	 cd7	 db	 'STAB '
   2708	    2275  45 4F	52 42 20	 cd8	 db	 'EORB '
   2709	    227A  41 44	43 42 20	 cd9	 db	 'ADCB '
   2710	    227F  4F 52	41 42 20	 cda	 db	 'ORAB '
   2711	    2284  41 44	44 42 20	 cdb	 db	 'ADDB '
   2712	    2289  4C 44	44 20 20	 cdc	 db	 'LDD  '
   2713	    228E  53 54	44 20 20	 cdd	 db	 'STD  '
   2714	    2293  4C 44	58 20 20	 cde	 db	 'LDX  '
   2715	    2298  4C 44	59 20 20	 cde1	 db	 'LDY  '
   2716	    229D  53 54	58 20 20	 cdf	 db	 'STX  '
   2717	    22A2  53 54	59 20 20	 cdf1	 db	 'STY  '
   2718
   2719	    22A7  53 55	42 42 20	 ce0	 db	 'SUBB '
   2720	    22AC  43 4D	50 42 20	 ce1	 db	 'CMPB '
   2721	    22B1  53 42	43 42 20	 ce2	 db	 'SBCB '
   2722	    22B6  41 44	44 44 20	 ce3	 db	 'ADDD '
   2723	    22BB  41 4E	44 42 20	 ce4	 db	 'ANDB '
   2724	    22C0  42 49	54 42 20	 ce5	 db	 'BITB '
   2725	    22C5  4C 44	41 42 20	 ce6	 db	 'LDAB '
   2726	    22CA  53 54	41 42 20	 ce7	 db	 'STAB '
   2727	    22CF  45 4F	52 42 20	 ce8	 db	 'EORB '
   2728	    22D4  41 44	43 42 20	 ce9	 db	 'ADCB '
   2729	    22D9  4F 52	41 42 20	 cea	 db	 'ORAB '
   2730	    22DE  41 44	44 42 20	 ceb	 db	 'ADDB '
   2731	    22E3  4C 44	44 20 20	 cec	 db	 'LDD  '
   2732	    22E8  53 54	44 20 20	 ced	 db	 'STD  '
   2733	    22ED  4C 44	58 20 20	 cee	 db	 'LDX  '
   2734	    22F2  4C 44	59 20 20	 cee1	 db	 'LDY  '
   2735	    22F7  53 54	58 20 20	 cef	 db	 'STX  '
   2736	    22FC  53 54	59 20 20	 cef1	 db	 'STY  '
Turbo Assembler	 Version 2.0	    05/29/96 02:11:59	    Page 49
dasm_c11.ASM



   2737
   2738	    2301  53 55	42 42 20	 cf0	 db	 'SUBB '
   2739	    2306  43 4D	50 42 20	 cf1	 db	 'CMPB '
   2740	    230B  53 42	43 42 20	 cf2	 db	 'SBCB '
   2741	    2310  41 44	44 44 20	 cf3	 db	 'ADDD '
   2742	    2315  41 4E	44 42 20	 cf4	 db	 'ANDB '
   2743	    231A  42 49	54 42 20	 cf5	 db	 'BITB '
   2744	    231F  4C 44	42 42 20	 cf6	 db	 'LDBB '
   2745	    2324  53 54	42 42 20	 cf7	 db	 'STBB '
   2746	    2329  45 4F	52 42 20	 cf8	 db	 'EORB '
   2747	    232E  41 44	43 42 20	 cf9	 db	 'ADCB '
   2748	    2333  4F 52	41 42 20	 cfa	 db	 'ORAB '
   2749	    2338  41 44	44 42 20	 cfb	 db	 'ADDB '
   2750	    233D  4C 44	44 20 20	 cfc	 db	 'LDD  '
   2751	    2342  53 54	44 20 20	 cfd	 db	 'STD  '
   2752	    2347  4C 44	58 20 20	 cfe	 db	 'LDX  '
   2753	    234C  4C 44	59 20 20	 cfe1	 db	 'LDY  '
   2754	    2351  53 54	58 20 20	 cff	 db	 'STX  '
   2755	    2356  53 54	59 20 20	 cff1	 db	 'STY  '
   2756	    235B  28 4E	41 29 20	 c00a	 db	 '(NA) '
   2757
   2758	    2360			 code	 ends
   2759						 end	 begin 
Turbo Assembler	 Version 2.0	    05/29/96 02:11:59	    Page 50
Symbol Table




Symbol Name			  Type	 Value

??DATE				  Text	 "05/29/96"
??FILENAME			  Text	 "dasm_c11"
??TIME				  Text	 "02:11:59"
??VERSION			  Number 0200
@CPU				  Text	 0D9FH
@CURSEG				  Text	 CODE
@FILENAME			  Text	 DASM_C11
@WORDSIZE			  Text	 2
A0				  Near	 CODE:01C7
A1				  Near	 CODE:0267
A2				  Near	 CODE:0307
A3				  Near	 CODE:03A7
A4				  Near	 CODE:0447
A5				  Near	 CODE:04E7
A6				  Near	 CODE:0587
A7				  Near	 CODE:0627
A8				  Near	 CODE:06C7
A9				  Near	 CODE:0767
AA				  Near	 CODE:0807
AB				  Near	 CODE:08A7
AC				  Near	 CODE:0947
AD				  Near	 CODE:09E7
ADDR1				  Byte	 CODE:0114
ADDR2				  Byte	 CODE:0115
ADDR3				  Byte	 CODE:0116
ADR16				  Word	 CODE:0123
AE				  Near	 CODE:0A87
AF				  Near	 CODE:0B27
BEGIN				  Near	 CODE:0100
C00				  Byte	 CODE:1E01
C00A				  Byte	 CODE:235B
C01				  Byte	 CODE:1E06
C02				  Byte	 CODE:1E0B
C03				  Byte	 CODE:1E10
C04				  Byte	 CODE:1E15
C05				  Byte	 CODE:1E1A
C06				  Byte	 CODE:1E1F
C07				  Byte	 CODE:1E24
C08				  Byte	 CODE:1E29
C081				  Byte	 CODE:1E2E
C09				  Byte	 CODE:1E33
C0A				  Byte	 CODE:1E38
C0B				  Byte	 CODE:1E3D
C0C				  Byte	 CODE:1E42
C0D				  Byte	 CODE:1E47
C0E				  Byte	 CODE:1E4C
C0F				  Byte	 CODE:1E51
C10				  Byte	 CODE:1E56
C11				  Byte	 CODE:1E5B
C12				  Byte	 CODE:1E60
C13				  Byte	 CODE:1E65
C14				  Byte	 CODE:1E6A
C15				  Byte	 CODE:1E6F
C16				  Byte	 CODE:1E74
Turbo Assembler	 Version 2.0	    05/29/96 02:11:59	    Page 51
Symbol Table



C17				  Byte	 CODE:1E79
C18				  Byte	 CODE:1E7E
C19				  Byte	 CODE:1E83
C1A				  Byte	 CODE:1E88
C1B				  Byte	 CODE:1E8D
C1C				  Byte	 CODE:1E92
C1D				  Byte	 CODE:1E97
C1E				  Byte	 CODE:1E9C
C1F				  Byte	 CODE:1EA1
C20				  Byte	 CODE:1EA6
C21				  Byte	 CODE:1EAB
C22				  Byte	 CODE:1EB0
C23				  Byte	 CODE:1EB5
C24				  Byte	 CODE:1EBA
C25				  Byte	 CODE:1EBF
C26				  Byte	 CODE:1EC4
C27				  Byte	 CODE:1EC9
C28				  Byte	 CODE:1ECE
C29				  Byte	 CODE:1ED3
C2A				  Byte	 CODE:1ED8
C2B				  Byte	 CODE:1EDD
C2C				  Byte	 CODE:1EE2
C2D				  Byte	 CODE:1EE7
C2E				  Byte	 CODE:1EEC
C2F				  Byte	 CODE:1EF1
C30				  Byte	 CODE:1EF6
C301				  Byte	 CODE:1EFB
C31				  Byte	 CODE:1F00
C32				  Byte	 CODE:1F05
C33				  Byte	 CODE:1F0A
C34				  Byte	 CODE:1F0F
C35				  Byte	 CODE:1F14
C351				  Byte	 CODE:1F19
C36				  Byte	 CODE:1F1E
C37				  Byte	 CODE:1F23
C38				  Byte	 CODE:1F28
C381				  Byte	 CODE:1F2D
C39				  Byte	 CODE:1F32
C3A				  Byte	 CODE:1F37
C3A1				  Byte	 CODE:1F3C
C3B				  Byte	 CODE:1F41
C3C				  Byte	 CODE:1F46
C3C1				  Byte	 CODE:1F4B
C3D				  Byte	 CODE:1F50
C3E				  Byte	 CODE:1F55
C3F				  Byte	 CODE:1F5A
C40				  Byte	 CODE:1F5F
C41				  Byte	 CODE:1F64
C42				  Byte	 CODE:1F69
C43				  Byte	 CODE:1F6E
C44				  Byte	 CODE:1F73
C45				  Byte	 CODE:1F78
C46				  Byte	 CODE:1F7D
C47				  Byte	 CODE:1F82
C48				  Byte	 CODE:1F87
C49				  Byte	 CODE:1F8C
C4A				  Byte	 CODE:1F91
Turbo Assembler	 Version 2.0	    05/29/96 02:11:59	    Page 52
Symbol Table



C4B				  Byte	 CODE:1F96
C4C				  Byte	 CODE:1F9B
C4D				  Byte	 CODE:1FA0
C4E				  Byte	 CODE:1FA5
C4F				  Byte	 CODE:1FAA
C50				  Byte	 CODE:1FAF
C51				  Byte	 CODE:1FB4
C52				  Byte	 CODE:1FB9
C53				  Byte	 CODE:1FBE
C54				  Byte	 CODE:1FC3
C55				  Byte	 CODE:1FC8
C56				  Byte	 CODE:1FCD
C57				  Byte	 CODE:1FD2
C58				  Byte	 CODE:1FD7
C59				  Byte	 CODE:1FDC
C5A				  Byte	 CODE:1FE1
C5B				  Byte	 CODE:1FE6
C5C				  Byte	 CODE:1FEB
C5D				  Byte	 CODE:1FF0
C5E				  Byte	 CODE:1FF5
C5F				  Byte	 CODE:1FFA
C60				  Byte	 CODE:1FFF
C61				  Byte	 CODE:2004
C62				  Byte	 CODE:2009
C63				  Byte	 CODE:200E
C64				  Byte	 CODE:2013
C65				  Byte	 CODE:2018
C66				  Byte	 CODE:201D
C67				  Byte	 CODE:2022
C68				  Byte	 CODE:2027
C69				  Byte	 CODE:202C
C6A				  Byte	 CODE:2031
C6B				  Byte	 CODE:2036
C6C				  Byte	 CODE:203B
C6D				  Byte	 CODE:2040
C6E				  Byte	 CODE:2045
C6F				  Byte	 CODE:204A
C70				  Byte	 CODE:204F
C71				  Byte	 CODE:2054
C72				  Byte	 CODE:2059
C73				  Byte	 CODE:205E
C74				  Byte	 CODE:2063
C75				  Byte	 CODE:2068
C76				  Byte	 CODE:206D
C77				  Byte	 CODE:2072
C78				  Byte	 CODE:2077
C79				  Byte	 CODE:207C
C7A				  Byte	 CODE:2081
C7B				  Byte	 CODE:2086
C7C				  Byte	 CODE:208B
C7D				  Byte	 CODE:2090
C7E				  Byte	 CODE:2095
C7F				  Byte	 CODE:209A
C80				  Byte	 CODE:209F
C81				  Byte	 CODE:20A4
C82				  Byte	 CODE:20A9
C83				  Byte	 CODE:20AE
Turbo Assembler	 Version 2.0	    05/29/96 02:11:59	    Page 53
Symbol Table



C84				  Byte	 CODE:20B3
C85				  Byte	 CODE:20B8
C86				  Byte	 CODE:20BD
C87				  Byte	 CODE:20C2
C88				  Byte	 CODE:20C7
C89				  Byte	 CODE:20CC
C8A				  Byte	 CODE:20D1
C8B				  Byte	 CODE:20D6
C8C				  Byte	 CODE:20DB
C8C1				  Byte	 CODE:20E0
C8D				  Byte	 CODE:20E5
C8E				  Byte	 CODE:20EA
C8F				  Byte	 CODE:20EF
C8F1				  Byte	 CODE:20F4
C90				  Byte	 CODE:20F9
C91				  Byte	 CODE:20FE
C92				  Byte	 CODE:2103
C93				  Byte	 CODE:2108
C94				  Byte	 CODE:210D
C95				  Byte	 CODE:2112
C96				  Byte	 CODE:2117
C97				  Byte	 CODE:211C
C98				  Byte	 CODE:2121
C99				  Byte	 CODE:2126
C9A				  Byte	 CODE:212B
C9B				  Byte	 CODE:2130
C9C				  Byte	 CODE:2135
C9C1				  Byte	 CODE:213A
C9D				  Byte	 CODE:213F
C9E				  Byte	 CODE:2144
C9F				  Byte	 CODE:2149
CA0				  Byte	 CODE:214E
CA1				  Byte	 CODE:2153
CA2				  Byte	 CODE:2158
CA3				  Byte	 CODE:215D
CA4				  Byte	 CODE:2162
CA5				  Byte	 CODE:2167
CA6				  Byte	 CODE:216C
CA7				  Byte	 CODE:2171
CA8				  Byte	 CODE:2176
CA9				  Byte	 CODE:217B
CAA				  Byte	 CODE:2180
CAB				  Byte	 CODE:2185
CAC				  Byte	 CODE:218A
CAC1				  Byte	 CODE:218F
CAD				  Byte	 CODE:2194
CAE				  Byte	 CODE:2199
CAF				  Byte	 CODE:219E
CB0				  Byte	 CODE:21A3
CB1				  Byte	 CODE:21A8
CB2				  Byte	 CODE:21AD
CB3				  Byte	 CODE:21B2
CB4				  Byte	 CODE:21B7
CB5				  Byte	 CODE:21BC
CB6				  Byte	 CODE:21C1
CB7				  Byte	 CODE:21C6
CB8				  Byte	 CODE:21CB
Turbo Assembler	 Version 2.0	    05/29/96 02:11:59	    Page 54
Symbol Table



CB9				  Byte	 CODE:21D0
CBA				  Byte	 CODE:21D5
CBB				  Byte	 CODE:21DA
CBC				  Byte	 CODE:21DF
CBC1				  Byte	 CODE:21E4
CBD				  Byte	 CODE:21E9
CBE				  Byte	 CODE:21EE
CBF				  Byte	 CODE:21F3
CC0				  Byte	 CODE:21F8
CC1				  Byte	 CODE:21FD
CC2				  Byte	 CODE:2202
CC3				  Byte	 CODE:2207
CC4				  Byte	 CODE:220C
CC5				  Byte	 CODE:2211
CC6				  Byte	 CODE:2216
CC7				  Byte	 CODE:221B
CC8				  Byte	 CODE:2220
CC9				  Byte	 CODE:2225
CCA				  Byte	 CODE:222A
CCB				  Byte	 CODE:222F
CCC				  Byte	 CODE:2234
CCD				  Byte	 CODE:2239
CCE				  Byte	 CODE:223E
CCE1				  Byte	 CODE:2243
CCF				  Byte	 CODE:2248
CD0				  Byte	 CODE:224D
CD1				  Byte	 CODE:2252
CD2				  Byte	 CODE:2257
CD3				  Byte	 CODE:225C
CD4				  Byte	 CODE:2261
CD5				  Byte	 CODE:2266
CD6				  Byte	 CODE:226B
CD7				  Byte	 CODE:2270
CD8				  Byte	 CODE:2275
CD9				  Byte	 CODE:227A
CDA				  Byte	 CODE:227F
CDB				  Byte	 CODE:2284
CDC				  Byte	 CODE:2289
CDD				  Byte	 CODE:228E
CDE				  Byte	 CODE:2293
CDE1				  Byte	 CODE:2298
CDF				  Byte	 CODE:229D
CDF1				  Byte	 CODE:22A2
CE0				  Byte	 CODE:22A7
CE1				  Byte	 CODE:22AC
CE2				  Byte	 CODE:22B1
CE3				  Byte	 CODE:22B6
CE4				  Byte	 CODE:22BB
CE5				  Byte	 CODE:22C0
CE6				  Byte	 CODE:22C5
CE7				  Byte	 CODE:22CA
CE8				  Byte	 CODE:22CF
CE9				  Byte	 CODE:22D4
CEA				  Byte	 CODE:22D9
CEB				  Byte	 CODE:22DE
CEC				  Byte	 CODE:22E3
CED				  Byte	 CODE:22E8
Turbo Assembler	 Version 2.0	    05/29/96 02:11:59	    Page 55
Symbol Table



CEE				  Byte	 CODE:22ED
CEE1				  Byte	 CODE:22F2
CEF				  Byte	 CODE:22F7
CEF1				  Byte	 CODE:22FC
CF0				  Byte	 CODE:2301
CF1				  Byte	 CODE:2306
CF2				  Byte	 CODE:230B
CF3				  Byte	 CODE:2310
CF4				  Byte	 CODE:2315
CF5				  Byte	 CODE:231A
CF6				  Byte	 CODE:231F
CF7				  Byte	 CODE:2324
CF8				  Byte	 CODE:2329
CF9				  Byte	 CODE:232E
CFA				  Byte	 CODE:2333
CFB				  Byte	 CODE:2338
CFC				  Byte	 CODE:233D
CFD				  Byte	 CODE:2342
CFE				  Byte	 CODE:2347
CFE1				  Byte	 CODE:234C
CFF				  Byte	 CODE:2351
CFF1				  Byte	 CODE:2356
CHANGE				  Near	 CODE:0164
CHART				  Word	 CODE:011E
CLOSE				  Near	 CODE:1CA4
CONT_1				  Near	 CODE:019A
CONT_2				  Near	 CODE:01A6
CREFI				  Near	 CODE:1CDA
DIGIT_				  Near	 CODE:1DF8
DTA				  Byte	 CODE:0117
DTA1				  Byte	 CODE:0118
ENCO				  Near	 CODE:1C55
END_F				  Near	 CODE:0189
END_F_				  Near	 CODE:1C6F
ERR_F				  Near	 CODE:017B
FNAME				  Byte	 CODE:0082
FNAME1				  Byte	 CODE:0103
FTEST				  Byte	 CODE:013D
HANDLE				  Word	 CODE:0110
HANDLE1				  Word	 CODE:0112
HI_ADR				  Byte	 CODE:011D
L1				  Near	 CODE:0153
LEN_HI				  Word	 CODE:0119
LEN_LO				  Word	 CODE:011B
M00				  Near	 CODE:0BBD
M01				  Near	 CODE:0BC9
M02				  Near	 CODE:0BD5
M03				  Near	 CODE:0BE1
M04				  Near	 CODE:0BED
M05				  Near	 CODE:0BF9
M06				  Near	 CODE:0C05
M07				  Near	 CODE:0C11
M08				  Near	 CODE:0C1D
M081				  Near	 CODE:0C32
M09				  Near	 CODE:0C3E
M0A				  Near	 CODE:0C4A
M0B				  Near	 CODE:0C56
Turbo Assembler	 Version 2.0	    05/29/96 02:11:59	    Page 56
Symbol Table



M0C				  Near	 CODE:0C62
M0D				  Near	 CODE:0C6E
M0E				  Near	 CODE:0C7A
M0F				  Near	 CODE:0C86
M10				  Near	 CODE:0C92
M11				  Near	 CODE:0C9E
M12				  Near	 CODE:0CAA
M13				  Near	 CODE:0CC5
M14				  Near	 CODE:0CE0
M15				  Near	 CODE:0CF5
M16				  Near	 CODE:0D0A
M17				  Near	 CODE:0D16
M18				  Near	 CODE:0D22
M19				  Near	 CODE:0D25
M1A				  Near	 CODE:0D31
M1B				  Near	 CODE:0D34
M1C				  Near	 CODE:0D40
M1D				  Near	 CODE:0D55
M1E				  Near	 CODE:0D6A
M1F				  Near	 CODE:0D85
M20				  Near	 CODE:0DA0
M21				  Near	 CODE:0DAF
M22				  Near	 CODE:0DBE
M23				  Near	 CODE:0DCD
M24				  Near	 CODE:0DDC
M25				  Near	 CODE:0DEB
M26				  Near	 CODE:0DFA
M27				  Near	 CODE:0E09
M28				  Near	 CODE:0E18
M29				  Near	 CODE:0E27
M2A				  Near	 CODE:0E36
M2B				  Near	 CODE:0E45
M2C				  Near	 CODE:0E54
M2D				  Near	 CODE:0E63
M2E				  Near	 CODE:0E72
M2F				  Near	 CODE:0E81
M30				  Near	 CODE:0E90
M301				  Near	 CODE:0EA5
M31				  Near	 CODE:0EB1
M32				  Near	 CODE:0EBD
M33				  Near	 CODE:0EC9
M34				  Near	 CODE:0ED5
M35				  Near	 CODE:0EE1
M351				  Near	 CODE:0EF6
M36				  Near	 CODE:0F02
M37				  Near	 CODE:0F0E
M38				  Near	 CODE:0F1A
M381				  Near	 CODE:0F2F
M39				  Near	 CODE:0F3B
M3A				  Near	 CODE:0F47
M3A1				  Near	 CODE:0F5C
M3B				  Near	 CODE:0F68
M3C				  Near	 CODE:0F74
M3C1				  Near	 CODE:0F89
M3D				  Near	 CODE:0F95
M3E				  Near	 CODE:0FA1
M3F				  Near	 CODE:0FAD
Turbo Assembler	 Version 2.0	    05/29/96 02:11:59	    Page 57
Symbol Table



M40				  Near	 CODE:0FB9
M41				  Near	 CODE:0FC5
M42				  Near	 CODE:0FD1
M43				  Near	 CODE:0FDD
M44				  Near	 CODE:0FE9
M45				  Near	 CODE:0FF5
M46				  Near	 CODE:1001
M47				  Near	 CODE:100D
M48				  Near	 CODE:1019
M49				  Near	 CODE:1025
M4A				  Near	 CODE:1031
M4B				  Near	 CODE:103D
M4C				  Near	 CODE:1049
M4D				  Near	 CODE:1055
M4E				  Near	 CODE:1061
M4F				  Near	 CODE:106D
M50				  Near	 CODE:1079
M51				  Near	 CODE:1085
M52				  Near	 CODE:1091
M53				  Near	 CODE:109D
M54				  Near	 CODE:10A9
M55				  Near	 CODE:10B5
M56				  Near	 CODE:10C1
M57				  Near	 CODE:10CD
M58				  Near	 CODE:10D9
M59				  Near	 CODE:10E5
M5A				  Near	 CODE:10F1
M5B				  Near	 CODE:10FD
M5C				  Near	 CODE:1109
M5D				  Near	 CODE:1115
M5E				  Near	 CODE:1121
M5F				  Near	 CODE:112D
M60				  Near	 CODE:1139
M61				  Near	 CODE:114B
M62				  Near	 CODE:1157
M63				  Near	 CODE:1163
M64				  Near	 CODE:1175
M65				  Near	 CODE:1187
M66				  Near	 CODE:1193
M67				  Near	 CODE:11A5
M68				  Near	 CODE:11B7
M69				  Near	 CODE:11C9
M6A				  Near	 CODE:11DB
M6B				  Near	 CODE:11ED
M6C				  Near	 CODE:11F9
M6D				  Near	 CODE:120B
M6E				  Near	 CODE:121D
M6F				  Near	 CODE:122F
M70				  Near	 CODE:1241
M71				  Near	 CODE:1250
M72				  Near	 CODE:125C
M73				  Near	 CODE:1268
M74				  Near	 CODE:1277
M75				  Near	 CODE:1286
M76				  Near	 CODE:1292
M77				  Near	 CODE:12A1
M78				  Near	 CODE:12B0
Turbo Assembler	 Version 2.0	    05/29/96 02:11:59	    Page 58
Symbol Table



M79				  Near	 CODE:12BF
M7A				  Near	 CODE:12CE
M7B				  Near	 CODE:12DD
M7C				  Near	 CODE:12E9
M7D				  Near	 CODE:12F8
M7E				  Near	 CODE:1307
M7F				  Near	 CODE:1316
M80				  Near	 CODE:1325
M81				  Near	 CODE:1334
M82				  Near	 CODE:1343
M83				  Near	 CODE:1352
M84				  Near	 CODE:1361
M85				  Near	 CODE:1370
M86				  Near	 CODE:137F
M87				  Near	 CODE:138E
M88				  Near	 CODE:139A
M89				  Near	 CODE:13A9
M8A				  Near	 CODE:13B8
M8B				  Near	 CODE:13C7
M8C				  Near	 CODE:13D6
M8C1				  Near	 CODE:13EE
M8D				  Near	 CODE:13FD
M8E				  Near	 CODE:140C
M8F				  Near	 CODE:141B
M8F1				  Near	 CODE:1430
M90				  Near	 CODE:143C
M91				  Near	 CODE:144B
M92				  Near	 CODE:145A
M93				  Near	 CODE:1469
M94				  Near	 CODE:1478
M95				  Near	 CODE:1487
M96				  Near	 CODE:1496
M97				  Near	 CODE:14A5
M98				  Near	 CODE:14B4
M99				  Near	 CODE:14C3
M9A				  Near	 CODE:14D2
M9B				  Near	 CODE:14E1
M9C				  Near	 CODE:14F0
M9C1				  Near	 CODE:1508
M9D				  Near	 CODE:1517
M9E				  Near	 CODE:1526
M9F				  Near	 CODE:1535
MA0				  Near	 CODE:1544
MA1				  Near	 CODE:1556
MA2				  Near	 CODE:1568
MA3				  Near	 CODE:157A
MA4				  Near	 CODE:158C
MA5				  Near	 CODE:159E
MA6				  Near	 CODE:15B0
MA7				  Near	 CODE:15C2
MA8				  Near	 CODE:15D4
MA9				  Near	 CODE:15E6
MAA				  Near	 CODE:15F8
MAB				  Near	 CODE:160A
MAC				  Near	 CODE:161C
MAC1				  Near	 CODE:1637
MAD				  Near	 CODE:1649
Turbo Assembler	 Version 2.0	    05/29/96 02:11:59	    Page 59
Symbol Table



MAE				  Near	 CODE:165B
MAF				  Near	 CODE:166D
MAIN				  Near	 CODE:0147
MB0				  Near	 CODE:167F
MB1				  Near	 CODE:168E
MB2				  Near	 CODE:169D
MB3				  Near	 CODE:16AC
MB4				  Near	 CODE:16BB
MB5				  Near	 CODE:16CA
MB6				  Near	 CODE:16D9
MB7				  Near	 CODE:16E8
MB8				  Near	 CODE:16F7
MB9				  Near	 CODE:1706
MBA				  Near	 CODE:1715
MBB				  Near	 CODE:1724
MBC				  Near	 CODE:1733
MBC1				  Near	 CODE:174B
MBD				  Near	 CODE:175A
MBE				  Near	 CODE:1769
MBF				  Near	 CODE:1778
MC0				  Near	 CODE:1787
MC1				  Near	 CODE:1796
MC2				  Near	 CODE:17A5
MC3				  Near	 CODE:17B4
MC4				  Near	 CODE:17C3
MC5				  Near	 CODE:17D2
MC6				  Near	 CODE:17E1
MC7				  Near	 CODE:17F0
MC8				  Near	 CODE:17FC
MC9				  Near	 CODE:180B
MCA				  Near	 CODE:181A
MCB				  Near	 CODE:1829
MCC				  Near	 CODE:1838
MCD				  Near	 CODE:1847
MCE				  Near	 CODE:1856
MCE1				  Near	 CODE:186E
MCF				  Near	 CODE:187D
MD0				  Near	 CODE:1889
MD1				  Near	 CODE:1898
MD2				  Near	 CODE:18A7
MD3				  Near	 CODE:18B6
MD4				  Near	 CODE:18C5
MD5				  Near	 CODE:18D4
MD6				  Near	 CODE:18E3
MD7				  Near	 CODE:18F2
MD8				  Near	 CODE:1901
MD9				  Near	 CODE:1910
MDA				  Near	 CODE:191F
MDB				  Near	 CODE:192E
MDC				  Near	 CODE:193D
MDD				  Near	 CODE:194C
MDE				  Near	 CODE:195B
MDE1				  Near	 CODE:1973
MDF				  Near	 CODE:1982
MDF1				  Near	 CODE:199A
ME0				  Near	 CODE:19A9
ME1				  Near	 CODE:19BB
Turbo Assembler	 Version 2.0	    05/29/96 02:11:59	    Page 60
Symbol Table



ME2				  Near	 CODE:19CD
ME3				  Near	 CODE:19DF
ME4				  Near	 CODE:19F1
ME5				  Near	 CODE:1A03
ME6				  Near	 CODE:1A15
ME7				  Near	 CODE:1A27
ME8				  Near	 CODE:1A39
ME9				  Near	 CODE:1A4B
MEA				  Near	 CODE:1A5D
MEB				  Near	 CODE:1A6F
MEC				  Near	 CODE:1A81
MED				  Near	 CODE:1A93
MEE				  Near	 CODE:1AA5
MEE1				  Near	 CODE:1AC0
MEF				  Near	 CODE:1AD2
MEF1				  Near	 CODE:1AED
MESS1				  Byte	 CODE:0132
MESS3				  Byte	 CODE:0127
META_				  Near	 CODE:1DEE
MF0				  Near	 CODE:1AFF
MF1				  Near	 CODE:1B11
MF2				  Near	 CODE:1B23
MF3				  Near	 CODE:1B35
MF4				  Near	 CODE:1B47
MF5				  Near	 CODE:1B59
MF6				  Near	 CODE:1B6B
MF7				  Near	 CODE:1B7D
MF8				  Near	 CODE:1B8F
MF9				  Near	 CODE:1BA1
MFA				  Near	 CODE:1BB3
MFB				  Near	 CODE:1BC5
MFC				  Near	 CODE:1BD7
MFD				  Near	 CODE:1BE9
MFE				  Near	 CODE:1BFB
MFE1				  Near	 CODE:1C16
MFF				  Near	 CODE:1C28
MFF1				  Near	 CODE:1C43
M_ER_F				  Near	 CODE:017E
NEXTB				  Near	 CODE:1D3F
N_OP_F				  Near	 CODE:0197
OPEN				  Near	 CODE:1CB5
OPENFI				  Near	 CODE:0168
OREC				  Byte	 CODE:0146
P16A				  Near	 CODE:1D58
P16D				  Near	 CODE:1D50
P8A				  Near	 CODE:1D8A
P8D				  Near	 CODE:1D82
P8S				  Near	 CODE:1DA3
PAJE2				  Near	 CODE:1C72
PAJE3				  Near	 CODE:1C86
PAJE4				  Near	 CODE:1C95
PRN16				  Near	 CODE:1DBC
PRN8				  Near	 CODE:1DDE
PROB				  Near	 CODE:1D03
READ				  Near	 CODE:1CC2
READ_E				  Near	 CODE:1CD7
REC				  Near	 CODE:1CE8
Turbo Assembler	 Version 2.0	    05/29/96 02:11:59	    Page 61
Symbol Table



REC5				  Near	 CODE:1CF7
SHIFT1				  Byte	 CODE:0125
SHIFT2				  Byte	 CODE:0126
VAL16				  Word	 CODE:0120
VAL8				  Byte	 CODE:0122
XPROB				  Near	 CODE:1D0C
X_PROB				  Near	 CODE:1D2E

Groups & Segments		  Bit Size Align  Combine Class

CODE				  16  2360 Para	  none
